
func2:     file format elf64-x86-64


Disassembly of section .init:

0000000000006000 <_init>:
    6000:	48 83 ec 08          	sub    $0x8,%rsp
    6004:	48 8b 05 85 8c 04 00 	mov    0x48c85(%rip),%rax        # 4ec90 <__gmon_start__>
    600b:	48 85 c0             	test   %rax,%rax
    600e:	74 02                	je     6012 <_init+0x12>
    6010:	ff d0                	callq  *%rax
    6012:	48 83 c4 08          	add    $0x8,%rsp
    6016:	c3                   	retq   

Disassembly of section .plt:

0000000000006020 <.plt>:
    6020:	ff 35 d2 88 04 00    	pushq  0x488d2(%rip)        # 4e8f8 <_GLOBAL_OFFSET_TABLE_+0x8>
    6026:	ff 25 d4 88 04 00    	jmpq   *0x488d4(%rip)        # 4e900 <_GLOBAL_OFFSET_TABLE_+0x10>
    602c:	0f 1f 40 00          	nopl   0x0(%rax)

0000000000006030 <__xstat64@plt>:
    6030:	ff 25 d2 88 04 00    	jmpq   *0x488d2(%rip)        # 4e908 <__xstat64@GLIBC_2.2.5>
    6036:	68 00 00 00 00       	pushq  $0x0
    603b:	e9 e0 ff ff ff       	jmpq   6020 <.plt>

0000000000006040 <__tls_get_addr@plt>:
    6040:	ff 25 ca 88 04 00    	jmpq   *0x488ca(%rip)        # 4e910 <__tls_get_addr@GLIBC_2.3>
    6046:	68 01 00 00 00       	pushq  $0x1
    604b:	e9 d0 ff ff ff       	jmpq   6020 <.plt>

0000000000006050 <__fxstat64@plt>:
    6050:	ff 25 c2 88 04 00    	jmpq   *0x488c2(%rip)        # 4e918 <__fxstat64@GLIBC_2.2.5>
    6056:	68 02 00 00 00       	pushq  $0x2
    605b:	e9 c0 ff ff ff       	jmpq   6020 <.plt>

0000000000006060 <_Unwind_Resume@plt>:
    6060:	ff 25 ba 88 04 00    	jmpq   *0x488ba(%rip)        # 4e920 <_Unwind_Resume@GCC_3.0>
    6066:	68 03 00 00 00       	pushq  $0x3
    606b:	e9 b0 ff ff ff       	jmpq   6020 <.plt>

Disassembly of section .plt.got:

0000000000006070 <__cxa_finalize@plt>:
    6070:	ff 25 42 8f 04 00    	jmpq   *0x48f42(%rip)        # 4efb8 <__cxa_finalize@GLIBC_2.2.5>
    6076:	66 90                	xchg   %ax,%ax

Disassembly of section .text:

0000000000006080 <_ZN4core5slice4sort14break_patterns17h666fa7c2c57a6caeE>:
    6080:	53                   	push   %rbx
    6081:	48 83 ec 20          	sub    $0x20,%rsp
    6085:	48 8d 46 ff          	lea    -0x1(%rsi),%rax
    6089:	48 0f bd c8          	bsr    %rax,%rcx
    608d:	83 f1 3f             	xor    $0x3f,%ecx
    6090:	49 c7 c0 ff ff ff ff 	mov    $0xffffffffffffffff,%r8
    6097:	49 d3 e8             	shr    %cl,%r8
    609a:	49 89 f2             	mov    %rsi,%r10
    609d:	49 d1 ea             	shr    %r10
    60a0:	4d 89 d3             	mov    %r10,%r11
    60a3:	49 83 e3 fe          	and    $0xfffffffffffffffe,%r11
    60a7:	4d 8d 4b ff          	lea    -0x1(%r11),%r9
    60ab:	89 f0                	mov    %esi,%eax
    60ad:	c1 e0 0d             	shl    $0xd,%eax
    60b0:	31 f0                	xor    %esi,%eax
    60b2:	89 c1                	mov    %eax,%ecx
    60b4:	c1 e9 11             	shr    $0x11,%ecx
    60b7:	31 c1                	xor    %eax,%ecx
    60b9:	89 c8                	mov    %ecx,%eax
    60bb:	c1 e0 05             	shl    $0x5,%eax
    60be:	31 c8                	xor    %ecx,%eax
    60c0:	89 c1                	mov    %eax,%ecx
    60c2:	c1 e1 0d             	shl    $0xd,%ecx
    60c5:	31 c1                	xor    %eax,%ecx
    60c7:	48 c1 e0 20          	shl    $0x20,%rax
    60cb:	89 ca                	mov    %ecx,%edx
    60cd:	c1 ea 11             	shr    $0x11,%edx
    60d0:	31 ca                	xor    %ecx,%edx
    60d2:	89 d3                	mov    %edx,%ebx
    60d4:	c1 e3 05             	shl    $0x5,%ebx
    60d7:	31 d3                	xor    %edx,%ebx
    60d9:	48 01 d8             	add    %rbx,%rax
    60dc:	4c 21 c0             	and    %r8,%rax
    60df:	31 d2                	xor    %edx,%edx
    60e1:	48 39 f0             	cmp    %rsi,%rax
    60e4:	48 0f 43 d6          	cmovae %rsi,%rdx
    60e8:	49 39 f1             	cmp    %rsi,%r9
    60eb:	0f 83 89 01 00 00    	jae    627a <_ZN4core5slice4sort14break_patterns17h666fa7c2c57a6caeE+0x1fa>
    60f1:	48 29 d0             	sub    %rdx,%rax
    60f4:	48 39 f0             	cmp    %rsi,%rax
    60f7:	0f 83 63 01 00 00    	jae    6260 <_ZN4core5slice4sort14break_patterns17h666fa7c2c57a6caeE+0x1e0>
    60fd:	4b 8d 14 49          	lea    (%r9,%r9,2),%rdx
    6101:	48 8d 04 40          	lea    (%rax,%rax,2),%rax
    6105:	48 8b 4c d7 10       	mov    0x10(%rdi,%rdx,8),%rcx
    610a:	48 89 4c 24 10       	mov    %rcx,0x10(%rsp)
    610f:	0f 10 04 d7          	movups (%rdi,%rdx,8),%xmm0
    6113:	0f 29 04 24          	movaps %xmm0,(%rsp)
    6117:	48 8b 4c c7 10       	mov    0x10(%rdi,%rax,8),%rcx
    611c:	0f 10 04 c7          	movups (%rdi,%rax,8),%xmm0
    6120:	0f 11 04 d7          	movups %xmm0,(%rdi,%rdx,8)
    6124:	48 89 4c d7 10       	mov    %rcx,0x10(%rdi,%rdx,8)
    6129:	48 8b 4c 24 10       	mov    0x10(%rsp),%rcx
    612e:	48 89 4c c7 10       	mov    %rcx,0x10(%rdi,%rax,8)
    6133:	0f 28 04 24          	movaps (%rsp),%xmm0
    6137:	0f 11 04 c7          	movups %xmm0,(%rdi,%rax,8)
    613b:	89 d8                	mov    %ebx,%eax
    613d:	c1 e0 0d             	shl    $0xd,%eax
    6140:	31 d8                	xor    %ebx,%eax
    6142:	89 c1                	mov    %eax,%ecx
    6144:	c1 e9 11             	shr    $0x11,%ecx
    6147:	31 c1                	xor    %eax,%ecx
    6149:	89 c8                	mov    %ecx,%eax
    614b:	c1 e0 05             	shl    $0x5,%eax
    614e:	31 c8                	xor    %ecx,%eax
    6150:	89 c1                	mov    %eax,%ecx
    6152:	c1 e1 0d             	shl    $0xd,%ecx
    6155:	31 c1                	xor    %eax,%ecx
    6157:	48 c1 e0 20          	shl    $0x20,%rax
    615b:	89 ca                	mov    %ecx,%edx
    615d:	c1 ea 11             	shr    $0x11,%edx
    6160:	31 ca                	xor    %ecx,%edx
    6162:	89 d1                	mov    %edx,%ecx
    6164:	c1 e1 05             	shl    $0x5,%ecx
    6167:	31 d1                	xor    %edx,%ecx
    6169:	48 01 c8             	add    %rcx,%rax
    616c:	4c 21 c0             	and    %r8,%rax
    616f:	31 d2                	xor    %edx,%edx
    6171:	48 39 f0             	cmp    %rsi,%rax
    6174:	48 0f 43 d6          	cmovae %rsi,%rdx
    6178:	49 39 f3             	cmp    %rsi,%r11
    617b:	0f 83 f1 00 00 00    	jae    6272 <_ZN4core5slice4sort14break_patterns17h666fa7c2c57a6caeE+0x1f2>
    6181:	48 29 d0             	sub    %rdx,%rax
    6184:	48 39 f0             	cmp    %rsi,%rax
    6187:	0f 83 d3 00 00 00    	jae    6260 <_ZN4core5slice4sort14break_patterns17h666fa7c2c57a6caeE+0x1e0>
    618d:	4b 8d 14 5b          	lea    (%r11,%r11,2),%rdx
    6191:	48 8d 04 40          	lea    (%rax,%rax,2),%rax
    6195:	48 8b 5c d7 10       	mov    0x10(%rdi,%rdx,8),%rbx
    619a:	48 89 5c 24 10       	mov    %rbx,0x10(%rsp)
    619f:	0f 10 04 d7          	movups (%rdi,%rdx,8),%xmm0
    61a3:	0f 29 04 24          	movaps %xmm0,(%rsp)
    61a7:	48 8b 5c c7 10       	mov    0x10(%rdi,%rax,8),%rbx
    61ac:	0f 10 04 c7          	movups (%rdi,%rax,8),%xmm0
    61b0:	0f 11 04 d7          	movups %xmm0,(%rdi,%rdx,8)
    61b4:	48 89 5c d7 10       	mov    %rbx,0x10(%rdi,%rdx,8)
    61b9:	48 8b 54 24 10       	mov    0x10(%rsp),%rdx
    61be:	48 89 54 c7 10       	mov    %rdx,0x10(%rdi,%rax,8)
    61c3:	0f 28 04 24          	movaps (%rsp),%xmm0
    61c7:	0f 11 04 c7          	movups %xmm0,(%rdi,%rax,8)
    61cb:	89 c8                	mov    %ecx,%eax
    61cd:	c1 e0 0d             	shl    $0xd,%eax
    61d0:	31 c8                	xor    %ecx,%eax
    61d2:	89 c1                	mov    %eax,%ecx
    61d4:	c1 e9 11             	shr    $0x11,%ecx
    61d7:	31 c1                	xor    %eax,%ecx
    61d9:	89 c8                	mov    %ecx,%eax
    61db:	c1 e0 05             	shl    $0x5,%eax
    61de:	31 c8                	xor    %ecx,%eax
    61e0:	89 c1                	mov    %eax,%ecx
    61e2:	c1 e1 0d             	shl    $0xd,%ecx
    61e5:	31 c1                	xor    %eax,%ecx
    61e7:	48 89 c2             	mov    %rax,%rdx
    61ea:	48 c1 e2 20          	shl    $0x20,%rdx
    61ee:	89 cb                	mov    %ecx,%ebx
    61f0:	c1 eb 11             	shr    $0x11,%ebx
    61f3:	31 cb                	xor    %ecx,%ebx
    61f5:	89 d8                	mov    %ebx,%eax
    61f7:	c1 e0 05             	shl    $0x5,%eax
    61fa:	31 d8                	xor    %ebx,%eax
    61fc:	48 09 d0             	or     %rdx,%rax
    61ff:	4c 21 c0             	and    %r8,%rax
    6202:	31 c9                	xor    %ecx,%ecx
    6204:	48 39 f0             	cmp    %rsi,%rax
    6207:	48 0f 43 ce          	cmovae %rsi,%rcx
    620b:	49 83 ca 01          	or     $0x1,%r10
    620f:	49 39 f2             	cmp    %rsi,%r10
    6212:	73 63                	jae    6277 <_ZN4core5slice4sort14break_patterns17h666fa7c2c57a6caeE+0x1f7>
    6214:	48 29 c8             	sub    %rcx,%rax
    6217:	48 39 f0             	cmp    %rsi,%rax
    621a:	73 44                	jae    6260 <_ZN4core5slice4sort14break_patterns17h666fa7c2c57a6caeE+0x1e0>
    621c:	4b 8d 0c 52          	lea    (%r10,%r10,2),%rcx
    6220:	48 8d 04 40          	lea    (%rax,%rax,2),%rax
    6224:	48 8b 54 cf 10       	mov    0x10(%rdi,%rcx,8),%rdx
    6229:	48 89 54 24 10       	mov    %rdx,0x10(%rsp)
    622e:	0f 10 04 cf          	movups (%rdi,%rcx,8),%xmm0
    6232:	0f 29 04 24          	movaps %xmm0,(%rsp)
    6236:	48 8b 54 c7 10       	mov    0x10(%rdi,%rax,8),%rdx
    623b:	0f 10 04 c7          	movups (%rdi,%rax,8),%xmm0
    623f:	0f 11 04 cf          	movups %xmm0,(%rdi,%rcx,8)
    6243:	48 89 54 cf 10       	mov    %rdx,0x10(%rdi,%rcx,8)
    6248:	48 8b 4c 24 10       	mov    0x10(%rsp),%rcx
    624d:	48 89 4c c7 10       	mov    %rcx,0x10(%rdi,%rax,8)
    6252:	0f 28 04 24          	movaps (%rsp),%xmm0
    6256:	0f 11 04 c7          	movups %xmm0,(%rdi,%rax,8)
    625a:	48 83 c4 20          	add    $0x20,%rsp
    625e:	5b                   	pop    %rbx
    625f:	c3                   	retq   
    6260:	48 8d 15 b1 60 04 00 	lea    0x460b1(%rip),%rdx        # 4c318 <__do_global_dtors_aux_fini_array_entry+0x1c0>
    6267:	48 89 c7             	mov    %rax,%rdi
    626a:	ff 15 18 89 04 00    	callq  *0x48918(%rip)        # 4eb88 <_GLOBAL_OFFSET_TABLE_+0x298>
    6270:	0f 0b                	ud2    
    6272:	4d 89 d9             	mov    %r11,%r9
    6275:	eb 03                	jmp    627a <_ZN4core5slice4sort14break_patterns17h666fa7c2c57a6caeE+0x1fa>
    6277:	4d 89 d1             	mov    %r10,%r9
    627a:	48 8d 15 97 60 04 00 	lea    0x46097(%rip),%rdx        # 4c318 <__do_global_dtors_aux_fini_array_entry+0x1c0>
    6281:	4c 89 cf             	mov    %r9,%rdi
    6284:	ff 15 fe 88 04 00    	callq  *0x488fe(%rip)        # 4eb88 <_GLOBAL_OFFSET_TABLE_+0x298>
    628a:	0f 0b                	ud2    
    628c:	0f 1f 40 00          	nopl   0x0(%rax)

0000000000006290 <_ZN4core5slice4sort22partial_insertion_sort17hf8fb8daf85abbc94E>:
    6290:	55                   	push   %rbp
    6291:	41 57                	push   %r15
    6293:	41 56                	push   %r14
    6295:	41 55                	push   %r13
    6297:	41 54                	push   %r12
    6299:	53                   	push   %rbx
    629a:	48 83 ec 28          	sub    $0x28,%rsp
    629e:	48 83 fe 32          	cmp    $0x32,%rsi
    62a2:	73 62                	jae    6306 <_ZN4core5slice4sort22partial_insertion_sort17hf8fb8daf85abbc94E+0x76>
    62a4:	b8 01 00 00 00       	mov    $0x1,%eax
    62a9:	48 83 fe 01          	cmp    $0x1,%rsi
    62ad:	0f 86 7f 02 00 00    	jbe    6532 <_ZN4core5slice4sort22partial_insertion_sort17hf8fb8daf85abbc94E+0x2a2>
    62b3:	48 8b 6f 18          	mov    0x18(%rdi),%rbp
    62b7:	48 3b 2f             	cmp    (%rdi),%rbp
    62ba:	0f 82 72 02 00 00    	jb     6532 <_ZN4core5slice4sort22partial_insertion_sort17hf8fb8daf85abbc94E+0x2a2>
    62c0:	ba 02 00 00 00       	mov    $0x2,%edx
    62c5:	48 29 f2             	sub    %rsi,%rdx
    62c8:	48 83 c7 30          	add    $0x30,%rdi
    62cc:	b8 01 00 00 00       	mov    $0x1,%eax
    62d1:	66 2e 0f 1f 84 00 00 	nopw   %cs:0x0(%rax,%rax,1)
    62d8:	00 00 00 
    62db:	0f 1f 44 00 00       	nopl   0x0(%rax,%rax,1)
    62e0:	48 8d 0c 02          	lea    (%rdx,%rax,1),%rcx
    62e4:	48 83 f9 01          	cmp    $0x1,%rcx
    62e8:	0f 84 41 02 00 00    	je     652f <_ZN4core5slice4sort22partial_insertion_sort17hf8fb8daf85abbc94E+0x29f>
    62ee:	48 8b 0f             	mov    (%rdi),%rcx
    62f1:	48 83 c7 18          	add    $0x18,%rdi
    62f5:	48 83 c0 01          	add    $0x1,%rax
    62f9:	48 39 e9             	cmp    %rbp,%rcx
    62fc:	48 89 cd             	mov    %rcx,%rbp
    62ff:	73 df                	jae    62e0 <_ZN4core5slice4sort22partial_insertion_sort17hf8fb8daf85abbc94E+0x50>
    6301:	e9 2c 02 00 00       	jmpq   6532 <_ZN4core5slice4sort22partial_insertion_sort17hf8fb8daf85abbc94E+0x2a2>
    6306:	4c 8d 7e ff          	lea    -0x1(%rsi),%r15
    630a:	4c 8d 4f d0          	lea    -0x30(%rdi),%r9
    630e:	48 8d 47 30          	lea    0x30(%rdi),%rax
    6312:	48 89 44 24 20       	mov    %rax,0x20(%rsp)
    6317:	4c 8d 5e fe          	lea    -0x2(%rsi),%r11
    631b:	b9 01 00 00 00       	mov    $0x1,%ecx
    6320:	45 31 f6             	xor    %r14d,%r14d
    6323:	eb 20                	jmp    6345 <_ZN4core5slice4sort22partial_insertion_sort17hf8fb8daf85abbc94E+0xb5>
    6325:	66 2e 0f 1f 84 00 00 	nopw   %cs:0x0(%rax,%rax,1)
    632c:	00 00 00 
    632f:	90                   	nop
    6330:	4c 89 02             	mov    %r8,(%rdx)
    6333:	0f 28 04 24          	movaps (%rsp),%xmm0
    6337:	0f 11 42 08          	movups %xmm0,0x8(%rdx)
    633b:	49 83 fe 05          	cmp    $0x5,%r14
    633f:	0f 84 f3 01 00 00    	je     6538 <_ZN4core5slice4sort22partial_insertion_sort17hf8fb8daf85abbc94E+0x2a8>
    6345:	48 39 f1             	cmp    %rsi,%rcx
    6348:	73 46                	jae    6390 <_ZN4core5slice4sort22partial_insertion_sort17hf8fb8daf85abbc94E+0x100>
    634a:	48 8d 04 49          	lea    (%rcx,%rcx,2),%rax
    634e:	48 8b 2c c7          	mov    (%rdi,%rax,8),%rbp
    6352:	b2 01                	mov    $0x1,%dl
    6354:	48 3b 6c c7 e8       	cmp    -0x18(%rdi,%rax,8),%rbp
    6359:	72 37                	jb     6392 <_ZN4core5slice4sort22partial_insertion_sort17hf8fb8daf85abbc94E+0x102>
    635b:	48 8d 04 c7          	lea    (%rdi,%rax,8),%rax
    635f:	90                   	nop
    6360:	49 39 cf             	cmp    %rcx,%r15
    6363:	0f 84 c2 01 00 00    	je     652b <_ZN4core5slice4sort22partial_insertion_sort17hf8fb8daf85abbc94E+0x29b>
    6369:	48 8b 50 18          	mov    0x18(%rax),%rdx
    636d:	48 8d 68 18          	lea    0x18(%rax),%rbp
    6371:	48 83 c1 01          	add    $0x1,%rcx
    6375:	48 3b 10             	cmp    (%rax),%rdx
    6378:	48 89 e8             	mov    %rbp,%rax
    637b:	73 e3                	jae    6360 <_ZN4core5slice4sort22partial_insertion_sort17hf8fb8daf85abbc94E+0xd0>
    637d:	48 39 f1             	cmp    %rsi,%rcx
    6380:	0f 92 c2             	setb   %dl
    6383:	eb 0d                	jmp    6392 <_ZN4core5slice4sort22partial_insertion_sort17hf8fb8daf85abbc94E+0x102>
    6385:	66 2e 0f 1f 84 00 00 	nopw   %cs:0x0(%rax,%rax,1)
    638c:	00 00 00 
    638f:	90                   	nop
    6390:	31 d2                	xor    %edx,%edx
    6392:	48 39 f1             	cmp    %rsi,%rcx
    6395:	0f 94 c0             	sete   %al
    6398:	0f 84 8d 01 00 00    	je     652b <_ZN4core5slice4sort22partial_insertion_sort17hf8fb8daf85abbc94E+0x29b>
    639e:	4c 8d 41 ff          	lea    -0x1(%rcx),%r8
    63a2:	49 39 f0             	cmp    %rsi,%r8
    63a5:	0f 83 9c 01 00 00    	jae    6547 <_ZN4core5slice4sort22partial_insertion_sort17hf8fb8daf85abbc94E+0x2b7>
    63ab:	84 d2                	test   %dl,%dl
    63ad:	0f 84 a6 01 00 00    	je     6559 <_ZN4core5slice4sort22partial_insertion_sort17hf8fb8daf85abbc94E+0x2c9>
    63b3:	4b 8d 1c 40          	lea    (%r8,%r8,2),%rbx
    63b7:	4c 8d 24 49          	lea    (%rcx,%rcx,2),%r12
    63bb:	48 8b 54 df 10       	mov    0x10(%rdi,%rbx,8),%rdx
    63c0:	48 89 54 24 10       	mov    %rdx,0x10(%rsp)
    63c5:	0f 10 04 df          	movups (%rdi,%rbx,8),%xmm0
    63c9:	0f 29 04 24          	movaps %xmm0,(%rsp)
    63cd:	4a 8b 54 e7 10       	mov    0x10(%rdi,%r12,8),%rdx
    63d2:	48 89 54 df 10       	mov    %rdx,0x10(%rdi,%rbx,8)
    63d7:	42 0f 10 04 e7       	movups (%rdi,%r12,8),%xmm0
    63dc:	0f 11 04 df          	movups %xmm0,(%rdi,%rbx,8)
    63e0:	48 8b 54 24 10       	mov    0x10(%rsp),%rdx
    63e5:	4a 89 54 e7 10       	mov    %rdx,0x10(%rdi,%r12,8)
    63ea:	0f 28 04 24          	movaps (%rsp),%xmm0
    63ee:	42 0f 11 04 e7       	movups %xmm0,(%rdi,%r12,8)
    63f3:	48 83 f9 02          	cmp    $0x2,%rcx
    63f7:	0f 82 90 00 00 00    	jb     648d <_ZN4core5slice4sort22partial_insertion_sort17hf8fb8daf85abbc94E+0x1fd>
    63fd:	48 8d 2c df          	lea    (%rdi,%rbx,8),%rbp
    6401:	48 8d 51 fe          	lea    -0x2(%rcx),%rdx
    6405:	4c 8b 45 00          	mov    0x0(%rbp),%r8
    6409:	4c 8d 14 52          	lea    (%rdx,%rdx,2),%r10
    640d:	4e 3b 04 d7          	cmp    (%rdi,%r10,8),%r8
    6411:	73 7a                	jae    648d <_ZN4core5slice4sort22partial_insertion_sort17hf8fb8daf85abbc94E+0x1fd>
    6413:	0f 10 44 df 08       	movups 0x8(%rdi,%rbx,8),%xmm0
    6418:	0f 29 04 24          	movaps %xmm0,(%rsp)
    641c:	4e 8d 2c d7          	lea    (%rdi,%r10,8),%r13
    6420:	4a 8b 5c d7 10       	mov    0x10(%rdi,%r10,8),%rbx
    6425:	48 89 5d 10          	mov    %rbx,0x10(%rbp)
    6429:	42 0f 10 04 d7       	movups (%rdi,%r10,8),%xmm0
    642e:	0f 11 45 00          	movups %xmm0,0x0(%rbp)
    6432:	48 85 d2             	test   %rdx,%rdx
    6435:	74 49                	je     6480 <_ZN4core5slice4sort22partial_insertion_sort17hf8fb8daf85abbc94E+0x1f0>
    6437:	4e 3b 44 e7 b8       	cmp    -0x48(%rdi,%r12,8),%r8
    643c:	73 42                	jae    6480 <_ZN4core5slice4sort22partial_insertion_sort17hf8fb8daf85abbc94E+0x1f0>
    643e:	4b 8d 1c e1          	lea    (%r9,%r12,8),%rbx
    6442:	66 2e 0f 1f 84 00 00 	nopw   %cs:0x0(%rax,%rax,1)
    6449:	00 00 00 
    644c:	0f 1f 40 00          	nopl   0x0(%rax)
    6450:	48 8b 6b f8          	mov    -0x8(%rbx),%rbp
    6454:	48 89 6b 10          	mov    %rbp,0x10(%rbx)
    6458:	0f 10 43 e8          	movups -0x18(%rbx),%xmm0
    645c:	0f 11 03             	movups %xmm0,(%rbx)
    645f:	48 83 c2 ff          	add    $0xffffffffffffffff,%rdx
    6463:	74 0f                	je     6474 <_ZN4core5slice4sort22partial_insertion_sort17hf8fb8daf85abbc94E+0x1e4>
    6465:	4c 8d 6b e8          	lea    -0x18(%rbx),%r13
    6469:	4c 3b 43 d0          	cmp    -0x30(%rbx),%r8
    646d:	4c 89 eb             	mov    %r13,%rbx
    6470:	72 de                	jb     6450 <_ZN4core5slice4sort22partial_insertion_sort17hf8fb8daf85abbc94E+0x1c0>
    6472:	eb 0c                	jmp    6480 <_ZN4core5slice4sort22partial_insertion_sort17hf8fb8daf85abbc94E+0x1f0>
    6474:	49 89 fd             	mov    %rdi,%r13
    6477:	66 0f 1f 84 00 00 00 	nopw   0x0(%rax,%rax,1)
    647e:	00 00 
    6480:	4d 89 45 00          	mov    %r8,0x0(%r13)
    6484:	0f 28 04 24          	movaps (%rsp),%xmm0
    6488:	41 0f 11 45 08       	movups %xmm0,0x8(%r13)
    648d:	49 83 c6 01          	add    $0x1,%r14
    6491:	48 89 f3             	mov    %rsi,%rbx
    6494:	48 29 cb             	sub    %rcx,%rbx
    6497:	48 83 fb 02          	cmp    $0x2,%rbx
    649b:	0f 82 9a fe ff ff    	jb     633b <_ZN4core5slice4sort22partial_insertion_sort17hf8fb8daf85abbc94E+0xab>
    64a1:	4e 8d 2c e7          	lea    (%rdi,%r12,8),%r13
    64a5:	4d 8b 45 00          	mov    0x0(%r13),%r8
    64a9:	4d 39 45 18          	cmp    %r8,0x18(%r13)
    64ad:	0f 83 88 fe ff ff    	jae    633b <_ZN4core5slice4sort22partial_insertion_sort17hf8fb8daf85abbc94E+0xab>
    64b3:	42 0f 10 44 e7 08    	movups 0x8(%rdi,%r12,8),%xmm0
    64b9:	0f 29 04 24          	movaps %xmm0,(%rsp)
    64bd:	49 8d 55 18          	lea    0x18(%r13),%rdx
    64c1:	49 8b 6d 28          	mov    0x28(%r13),%rbp
    64c5:	49 89 6d 10          	mov    %rbp,0x10(%r13)
    64c9:	41 0f 10 45 18       	movups 0x18(%r13),%xmm0
    64ce:	41 0f 11 45 00       	movups %xmm0,0x0(%r13)
    64d3:	48 83 fb 03          	cmp    $0x3,%rbx
    64d7:	0f 82 53 fe ff ff    	jb     6330 <_ZN4core5slice4sort22partial_insertion_sort17hf8fb8daf85abbc94E+0xa0>
    64dd:	4d 39 45 30          	cmp    %r8,0x30(%r13)
    64e1:	0f 83 49 fe ff ff    	jae    6330 <_ZN4core5slice4sort22partial_insertion_sort17hf8fb8daf85abbc94E+0xa0>
    64e7:	48 8b 54 24 20       	mov    0x20(%rsp),%rdx
    64ec:	4a 8d 2c e2          	lea    (%rdx,%r12,8),%rbp
    64f0:	4c 89 db             	mov    %r11,%rbx
    64f3:	48 29 cb             	sub    %rcx,%rbx
    64f6:	66 2e 0f 1f 84 00 00 	nopw   %cs:0x0(%rax,%rax,1)
    64fd:	00 00 00 
    6500:	48 89 ea             	mov    %rbp,%rdx
    6503:	48 8b 6d 10          	mov    0x10(%rbp),%rbp
    6507:	48 89 6a f8          	mov    %rbp,-0x8(%rdx)
    650b:	0f 10 02             	movups (%rdx),%xmm0
    650e:	0f 11 42 e8          	movups %xmm0,-0x18(%rdx)
    6512:	48 83 c3 ff          	add    $0xffffffffffffffff,%rbx
    6516:	0f 84 14 fe ff ff    	je     6330 <_ZN4core5slice4sort22partial_insertion_sort17hf8fb8daf85abbc94E+0xa0>
    651c:	48 8d 6a 18          	lea    0x18(%rdx),%rbp
    6520:	4c 39 42 18          	cmp    %r8,0x18(%rdx)
    6524:	72 da                	jb     6500 <_ZN4core5slice4sort22partial_insertion_sort17hf8fb8daf85abbc94E+0x270>
    6526:	e9 05 fe ff ff       	jmpq   6330 <_ZN4core5slice4sort22partial_insertion_sort17hf8fb8daf85abbc94E+0xa0>
    652b:	b0 01                	mov    $0x1,%al
    652d:	eb 09                	jmp    6538 <_ZN4core5slice4sort22partial_insertion_sort17hf8fb8daf85abbc94E+0x2a8>
    652f:	48 89 f0             	mov    %rsi,%rax
    6532:	48 39 f0             	cmp    %rsi,%rax
    6535:	0f 94 c0             	sete   %al
    6538:	48 83 c4 28          	add    $0x28,%rsp
    653c:	5b                   	pop    %rbx
    653d:	41 5c                	pop    %r12
    653f:	41 5d                	pop    %r13
    6541:	41 5e                	pop    %r14
    6543:	41 5f                	pop    %r15
    6545:	5d                   	pop    %rbp
    6546:	c3                   	retq   
    6547:	48 8d 15 e2 5d 04 00 	lea    0x45de2(%rip),%rdx        # 4c330 <__do_global_dtors_aux_fini_array_entry+0x1d8>
    654e:	4c 89 c7             	mov    %r8,%rdi
    6551:	ff 15 31 86 04 00    	callq  *0x48631(%rip)        # 4eb88 <_GLOBAL_OFFSET_TABLE_+0x298>
    6557:	0f 0b                	ud2    
    6559:	48 8d 15 d0 5d 04 00 	lea    0x45dd0(%rip),%rdx        # 4c330 <__do_global_dtors_aux_fini_array_entry+0x1d8>
    6560:	48 89 cf             	mov    %rcx,%rdi
    6563:	ff 15 1f 86 04 00    	callq  *0x4861f(%rip)        # 4eb88 <_GLOBAL_OFFSET_TABLE_+0x298>
    6569:	0f 0b                	ud2    
    656b:	0f 1f 44 00 00       	nopl   0x0(%rax,%rax,1)

0000000000006570 <_ZN4core5slice4sort8heapsort17h1f5d5a10d13cfdc0E>:
    6570:	48 83 ec 18          	sub    $0x18,%rsp
    6574:	48 83 fe 02          	cmp    $0x2,%rsi
    6578:	0f 82 20 02 00 00    	jb     679e <_ZN4core5slice4sort8heapsort17h1f5d5a10d13cfdc0E+0x22e>
    657e:	49 89 f2             	mov    %rsi,%r10
    6581:	49 d1 ea             	shr    %r10
    6584:	eb 13                	jmp    6599 <_ZN4core5slice4sort8heapsort17h1f5d5a10d13cfdc0E+0x29>
    6586:	66 2e 0f 1f 84 00 00 	nopw   %cs:0x0(%rax,%rax,1)
    658d:	00 00 00 
    6590:	4d 85 d2             	test   %r10,%r10
    6593:	0f 84 d5 00 00 00    	je     666e <_ZN4core5slice4sort8heapsort17h1f5d5a10d13cfdc0E+0xfe>
    6599:	4c 89 d1             	mov    %r10,%rcx
    659c:	49 83 c2 ff          	add    $0xffffffffffffffff,%r10
    65a0:	48 8d 04 09          	lea    (%rcx,%rcx,1),%rax
    65a4:	48 83 c0 ff          	add    $0xffffffffffffffff,%rax
    65a8:	48 39 f0             	cmp    %rsi,%rax
    65ab:	73 e3                	jae    6590 <_ZN4core5slice4sort8heapsort17h1f5d5a10d13cfdc0E+0x20>
    65ad:	48 01 c9             	add    %rcx,%rcx
    65b0:	48 83 c1 fe          	add    $0xfffffffffffffffe,%rcx
    65b4:	4d 89 d0             	mov    %r10,%r8
    65b7:	66 0f 1f 84 00 00 00 	nopw   0x0(%rax,%rax,1)
    65be:	00 00 
    65c0:	48 83 c1 02          	add    $0x2,%rcx
    65c4:	48 39 f1             	cmp    %rsi,%rcx
    65c7:	73 27                	jae    65f0 <_ZN4core5slice4sort8heapsort17h1f5d5a10d13cfdc0E+0x80>
    65c9:	48 8d 14 40          	lea    (%rax,%rax,2),%rdx
    65cd:	4c 8b 0c d7          	mov    (%rdi,%rdx,8),%r9
    65d1:	48 8d 14 49          	lea    (%rcx,%rcx,2),%rdx
    65d5:	4c 3b 0c d7          	cmp    (%rdi,%rdx,8),%r9
    65d9:	72 03                	jb     65de <_ZN4core5slice4sort8heapsort17h1f5d5a10d13cfdc0E+0x6e>
    65db:	48 89 c1             	mov    %rax,%rcx
    65de:	49 89 c9             	mov    %rcx,%r9
    65e1:	49 39 f0             	cmp    %rsi,%r8
    65e4:	72 16                	jb     65fc <_ZN4core5slice4sort8heapsort17h1f5d5a10d13cfdc0E+0x8c>
    65e6:	e9 b8 01 00 00       	jmpq   67a3 <_ZN4core5slice4sort8heapsort17h1f5d5a10d13cfdc0E+0x233>
    65eb:	0f 1f 44 00 00       	nopl   0x0(%rax,%rax,1)
    65f0:	49 89 c1             	mov    %rax,%r9
    65f3:	49 39 f0             	cmp    %rsi,%r8
    65f6:	0f 83 a7 01 00 00    	jae    67a3 <_ZN4core5slice4sort8heapsort17h1f5d5a10d13cfdc0E+0x233>
    65fc:	49 39 f1             	cmp    %rsi,%r9
    65ff:	0f 83 b0 01 00 00    	jae    67b5 <_ZN4core5slice4sort8heapsort17h1f5d5a10d13cfdc0E+0x245>
    6605:	4b 8d 04 40          	lea    (%r8,%r8,2),%rax
    6609:	4b 8d 0c 49          	lea    (%r9,%r9,2),%rcx
    660d:	48 8b 14 c7          	mov    (%rdi,%rax,8),%rdx
    6611:	48 3b 14 cf          	cmp    (%rdi,%rcx,8),%rdx
    6615:	0f 83 75 ff ff ff    	jae    6590 <_ZN4core5slice4sort8heapsort17h1f5d5a10d13cfdc0E+0x20>
    661b:	48 8d 04 c7          	lea    (%rdi,%rax,8),%rax
    661f:	48 8d 0c cf          	lea    (%rdi,%rcx,8),%rcx
    6623:	48 8b 50 10          	mov    0x10(%rax),%rdx
    6627:	48 89 54 24 10       	mov    %rdx,0x10(%rsp)
    662c:	0f 10 00             	movups (%rax),%xmm0
    662f:	0f 29 04 24          	movaps %xmm0,(%rsp)
    6633:	48 8b 51 10          	mov    0x10(%rcx),%rdx
    6637:	0f 10 01             	movups (%rcx),%xmm0
    663a:	0f 11 00             	movups %xmm0,(%rax)
    663d:	48 89 50 10          	mov    %rdx,0x10(%rax)
    6641:	48 8b 44 24 10       	mov    0x10(%rsp),%rax
    6646:	48 89 41 10          	mov    %rax,0x10(%rcx)
    664a:	0f 28 04 24          	movaps (%rsp),%xmm0
    664e:	0f 11 01             	movups %xmm0,(%rcx)
    6651:	4b 8d 0c 09          	lea    (%r9,%r9,1),%rcx
    6655:	4b 8d 04 09          	lea    (%r9,%r9,1),%rax
    6659:	48 83 c0 01          	add    $0x1,%rax
    665d:	4d 89 c8             	mov    %r9,%r8
    6660:	48 39 f0             	cmp    %rsi,%rax
    6663:	0f 82 57 ff ff ff    	jb     65c0 <_ZN4core5slice4sort8heapsort17h1f5d5a10d13cfdc0E+0x50>
    6669:	e9 22 ff ff ff       	jmpq   6590 <_ZN4core5slice4sort8heapsort17h1f5d5a10d13cfdc0E+0x20>
    666e:	48 83 fe 02          	cmp    $0x2,%rsi
    6672:	0f 82 26 01 00 00    	jb     679e <_ZN4core5slice4sort8heapsort17h1f5d5a10d13cfdc0E+0x22e>
    6678:	49 89 f0             	mov    %rsi,%r8
    667b:	eb 0d                	jmp    668a <_ZN4core5slice4sort8heapsort17h1f5d5a10d13cfdc0E+0x11a>
    667d:	0f 1f 00             	nopl   (%rax)
    6680:	49 83 f8 01          	cmp    $0x1,%r8
    6684:	0f 86 14 01 00 00    	jbe    679e <_ZN4core5slice4sort8heapsort17h1f5d5a10d13cfdc0E+0x22e>
    668a:	49 83 c0 ff          	add    $0xffffffffffffffff,%r8
    668e:	49 39 f0             	cmp    %rsi,%r8
    6691:	0f 83 51 01 00 00    	jae    67e8 <_ZN4core5slice4sort8heapsort17h1f5d5a10d13cfdc0E+0x278>
    6697:	4b 8d 04 40          	lea    (%r8,%r8,2),%rax
    669b:	48 8b 4f 10          	mov    0x10(%rdi),%rcx
    669f:	48 89 4c 24 10       	mov    %rcx,0x10(%rsp)
    66a4:	0f 10 07             	movups (%rdi),%xmm0
    66a7:	0f 29 04 24          	movaps %xmm0,(%rsp)
    66ab:	48 8b 4c c7 10       	mov    0x10(%rdi,%rax,8),%rcx
    66b0:	0f 10 04 c7          	movups (%rdi,%rax,8),%xmm0
    66b4:	0f 11 07             	movups %xmm0,(%rdi)
    66b7:	48 89 4f 10          	mov    %rcx,0x10(%rdi)
    66bb:	48 8b 4c 24 10       	mov    0x10(%rsp),%rcx
    66c0:	48 89 4c c7 10       	mov    %rcx,0x10(%rdi,%rax,8)
    66c5:	0f 28 04 24          	movaps (%rsp),%xmm0
    66c9:	0f 11 04 c7          	movups %xmm0,(%rdi,%rax,8)
    66cd:	49 83 f8 02          	cmp    $0x2,%r8
    66d1:	0f 82 c7 00 00 00    	jb     679e <_ZN4core5slice4sort8heapsort17h1f5d5a10d13cfdc0E+0x22e>
    66d7:	ba 01 00 00 00       	mov    $0x1,%edx
    66dc:	31 c9                	xor    %ecx,%ecx
    66de:	45 31 c9             	xor    %r9d,%r9d
    66e1:	66 2e 0f 1f 84 00 00 	nopw   %cs:0x0(%rax,%rax,1)
    66e8:	00 00 00 
    66eb:	0f 1f 44 00 00       	nopl   0x0(%rax,%rax,1)
    66f0:	48 83 c1 02          	add    $0x2,%rcx
    66f4:	4c 39 c1             	cmp    %r8,%rcx
    66f7:	73 27                	jae    6720 <_ZN4core5slice4sort8heapsort17h1f5d5a10d13cfdc0E+0x1b0>
    66f9:	48 8d 04 52          	lea    (%rdx,%rdx,2),%rax
    66fd:	4c 8b 14 c7          	mov    (%rdi,%rax,8),%r10
    6701:	48 8d 04 49          	lea    (%rcx,%rcx,2),%rax
    6705:	4c 3b 14 c7          	cmp    (%rdi,%rax,8),%r10
    6709:	72 03                	jb     670e <_ZN4core5slice4sort8heapsort17h1f5d5a10d13cfdc0E+0x19e>
    670b:	48 89 d1             	mov    %rdx,%rcx
    670e:	49 89 ca             	mov    %rcx,%r10
    6711:	eb 10                	jmp    6723 <_ZN4core5slice4sort8heapsort17h1f5d5a10d13cfdc0E+0x1b3>
    6713:	66 2e 0f 1f 84 00 00 	nopw   %cs:0x0(%rax,%rax,1)
    671a:	00 00 00 
    671d:	0f 1f 00             	nopl   (%rax)
    6720:	49 89 d2             	mov    %rdx,%r10
    6723:	4d 39 c1             	cmp    %r8,%r9
    6726:	0f 83 9b 00 00 00    	jae    67c7 <_ZN4core5slice4sort8heapsort17h1f5d5a10d13cfdc0E+0x257>
    672c:	4d 39 c2             	cmp    %r8,%r10
    672f:	0f 83 9e 00 00 00    	jae    67d3 <_ZN4core5slice4sort8heapsort17h1f5d5a10d13cfdc0E+0x263>
    6735:	4b 8d 0c 49          	lea    (%r9,%r9,2),%rcx
    6739:	4b 8d 14 52          	lea    (%r10,%r10,2),%rdx
    673d:	48 8b 04 cf          	mov    (%rdi,%rcx,8),%rax
    6741:	48 3b 04 d7          	cmp    (%rdi,%rdx,8),%rax
    6745:	0f 83 35 ff ff ff    	jae    6680 <_ZN4core5slice4sort8heapsort17h1f5d5a10d13cfdc0E+0x110>
    674b:	48 8d 04 cf          	lea    (%rdi,%rcx,8),%rax
    674f:	48 8d 0c d7          	lea    (%rdi,%rdx,8),%rcx
    6753:	48 8b 50 10          	mov    0x10(%rax),%rdx
    6757:	48 89 54 24 10       	mov    %rdx,0x10(%rsp)
    675c:	0f 10 00             	movups (%rax),%xmm0
    675f:	0f 29 04 24          	movaps %xmm0,(%rsp)
    6763:	48 8b 51 10          	mov    0x10(%rcx),%rdx
    6767:	0f 10 01             	movups (%rcx),%xmm0
    676a:	0f 11 00             	movups %xmm0,(%rax)
    676d:	48 89 50 10          	mov    %rdx,0x10(%rax)
    6771:	48 8b 44 24 10       	mov    0x10(%rsp),%rax
    6776:	48 89 41 10          	mov    %rax,0x10(%rcx)
    677a:	0f 28 04 24          	movaps (%rsp),%xmm0
    677e:	0f 11 01             	movups %xmm0,(%rcx)
    6781:	4b 8d 0c 12          	lea    (%r10,%r10,1),%rcx
    6785:	4b 8d 14 12          	lea    (%r10,%r10,1),%rdx
    6789:	48 83 c2 01          	add    $0x1,%rdx
    678d:	4d 89 d1             	mov    %r10,%r9
    6790:	4c 39 c2             	cmp    %r8,%rdx
    6793:	0f 82 57 ff ff ff    	jb     66f0 <_ZN4core5slice4sort8heapsort17h1f5d5a10d13cfdc0E+0x180>
    6799:	e9 e2 fe ff ff       	jmpq   6680 <_ZN4core5slice4sort8heapsort17h1f5d5a10d13cfdc0E+0x110>
    679e:	48 83 c4 18          	add    $0x18,%rsp
    67a2:	c3                   	retq   
    67a3:	48 8d 15 fe 5b 04 00 	lea    0x45bfe(%rip),%rdx        # 4c3a8 <__do_global_dtors_aux_fini_array_entry+0x250>
    67aa:	4c 89 c7             	mov    %r8,%rdi
    67ad:	ff 15 d5 83 04 00    	callq  *0x483d5(%rip)        # 4eb88 <_GLOBAL_OFFSET_TABLE_+0x298>
    67b3:	0f 0b                	ud2    
    67b5:	48 8d 15 04 5c 04 00 	lea    0x45c04(%rip),%rdx        # 4c3c0 <__do_global_dtors_aux_fini_array_entry+0x268>
    67bc:	4c 89 cf             	mov    %r9,%rdi
    67bf:	ff 15 c3 83 04 00    	callq  *0x483c3(%rip)        # 4eb88 <_GLOBAL_OFFSET_TABLE_+0x298>
    67c5:	0f 0b                	ud2    
    67c7:	48 8d 15 da 5b 04 00 	lea    0x45bda(%rip),%rdx        # 4c3a8 <__do_global_dtors_aux_fini_array_entry+0x250>
    67ce:	4c 89 cf             	mov    %r9,%rdi
    67d1:	eb 0a                	jmp    67dd <_ZN4core5slice4sort8heapsort17h1f5d5a10d13cfdc0E+0x26d>
    67d3:	48 8d 15 e6 5b 04 00 	lea    0x45be6(%rip),%rdx        # 4c3c0 <__do_global_dtors_aux_fini_array_entry+0x268>
    67da:	4c 89 d7             	mov    %r10,%rdi
    67dd:	4c 89 c6             	mov    %r8,%rsi
    67e0:	ff 15 a2 83 04 00    	callq  *0x483a2(%rip)        # 4eb88 <_GLOBAL_OFFSET_TABLE_+0x298>
    67e6:	0f 0b                	ud2    
    67e8:	48 8d 15 a1 5b 04 00 	lea    0x45ba1(%rip),%rdx        # 4c390 <__do_global_dtors_aux_fini_array_entry+0x238>
    67ef:	4c 89 c7             	mov    %r8,%rdi
    67f2:	ff 15 90 83 04 00    	callq  *0x48390(%rip)        # 4eb88 <_GLOBAL_OFFSET_TABLE_+0x298>
    67f8:	0f 0b                	ud2    
    67fa:	66 0f 1f 44 00 00    	nopw   0x0(%rax,%rax,1)

0000000000006800 <_ZN4core9panicking13assert_failed17h1c8cf442a65c3456E>:
    6800:	48 83 ec 58          	sub    $0x58,%rsp
    6804:	48 89 74 24 10       	mov    %rsi,0x10(%rsp)
    6809:	48 89 54 24 18       	mov    %rdx,0x18(%rsp)
    680e:	0f 10 01             	movups (%rcx),%xmm0
    6811:	0f 10 49 10          	movups 0x10(%rcx),%xmm1
    6815:	0f 10 51 20          	movups 0x20(%rcx),%xmm2
    6819:	0f 29 54 24 40       	movaps %xmm2,0x40(%rsp)
    681e:	0f 29 4c 24 30       	movaps %xmm1,0x30(%rsp)
    6823:	0f 29 44 24 20       	movaps %xmm0,0x20(%rsp)
    6828:	4c 89 04 24          	mov    %r8,(%rsp)
    682c:	48 8d 15 8d 5c 04 00 	lea    0x45c8d(%rip),%rdx        # 4c4c0 <__do_global_dtors_aux_fini_array_entry+0x368>
    6833:	48 8d 74 24 10       	lea    0x10(%rsp),%rsi
    6838:	48 8d 4c 24 18       	lea    0x18(%rsp),%rcx
    683d:	4c 8d 4c 24 20       	lea    0x20(%rsp),%r9
    6842:	49 89 d0             	mov    %rdx,%r8
    6845:	ff 15 fd 80 04 00    	callq  *0x480fd(%rip)        # 4e948 <_GLOBAL_OFFSET_TABLE_+0x58>
    684b:	0f 0b                	ud2    
    684d:	0f 1f 00             	nopl   (%rax)

0000000000006850 <_ZN4core9panicking13assert_failed17h7e90d0179b1146d2E>:
    6850:	48 83 ec 58          	sub    $0x58,%rsp
    6854:	48 89 7c 24 10       	mov    %rdi,0x10(%rsp)
    6859:	48 8d 05 c8 7b 03 00 	lea    0x37bc8(%rip),%rax        # 3e428 <_fini+0x1d48>
    6860:	48 89 44 24 18       	mov    %rax,0x18(%rsp)
    6865:	0f 10 06             	movups (%rsi),%xmm0
    6868:	0f 10 4e 10          	movups 0x10(%rsi),%xmm1
    686c:	0f 10 56 20          	movups 0x20(%rsi),%xmm2
    6870:	0f 29 54 24 40       	movaps %xmm2,0x40(%rsp)
    6875:	0f 29 4c 24 30       	movaps %xmm1,0x30(%rsp)
    687a:	0f 29 44 24 20       	movaps %xmm0,0x20(%rsp)
    687f:	48 8d 05 62 64 04 00 	lea    0x46462(%rip),%rax        # 4cce8 <__do_global_dtors_aux_fini_array_entry+0xb90>
    6886:	48 89 04 24          	mov    %rax,(%rsp)
    688a:	48 8d 15 4f 5c 04 00 	lea    0x45c4f(%rip),%rdx        # 4c4e0 <__do_global_dtors_aux_fini_array_entry+0x388>
    6891:	48 8d 74 24 10       	lea    0x10(%rsp),%rsi
    6896:	48 8d 4c 24 18       	lea    0x18(%rsp),%rcx
    689b:	4c 8d 4c 24 20       	lea    0x20(%rsp),%r9
    68a0:	31 ff                	xor    %edi,%edi
    68a2:	49 89 d0             	mov    %rdx,%r8
    68a5:	ff 15 9d 80 04 00    	callq  *0x4809d(%rip)        # 4e948 <_GLOBAL_OFFSET_TABLE_+0x58>
    68ab:	0f 0b                	ud2    
    68ad:	0f 1f 00             	nopl   (%rax)

00000000000068b0 <_ZN5alloc7raw_vec19RawVec$LT$T$C$A$GT$7reserve21do_reserve_and_handle17h15ca14cfba957341E>:
    68b0:	41 57                	push   %r15
    68b2:	41 56                	push   %r14
    68b4:	53                   	push   %rbx
    68b5:	48 83 ec 30          	sub    $0x30,%rsp
    68b9:	48 ff c6             	inc    %rsi
    68bc:	0f 84 94 00 00 00    	je     6956 <_ZN5alloc7raw_vec19RawVec$LT$T$C$A$GT$7reserve21do_reserve_and_handle17h15ca14cfba957341E+0xa6>
    68c2:	49 89 fe             	mov    %rdi,%r14
    68c5:	48 8b 7f 08          	mov    0x8(%rdi),%rdi
    68c9:	48 8d 04 3f          	lea    (%rdi,%rdi,1),%rax
    68cd:	48 39 f0             	cmp    %rsi,%rax
    68d0:	48 0f 47 f0          	cmova  %rax,%rsi
    68d4:	48 83 fe 05          	cmp    $0x5,%rsi
    68d8:	41 bf 04 00 00 00    	mov    $0x4,%r15d
    68de:	4c 0f 43 fe          	cmovae %rsi,%r15
    68e2:	b9 00 01 00 00       	mov    $0x100,%ecx
    68e7:	31 db                	xor    %ebx,%ebx
    68e9:	4c 89 f8             	mov    %r15,%rax
    68ec:	48 f7 e1             	mul    %rcx
    68ef:	48 89 c6             	mov    %rax,%rsi
    68f2:	0f 91 c3             	setno  %bl
    68f5:	48 c1 e3 03          	shl    $0x3,%rbx
    68f9:	48 85 ff             	test   %rdi,%rdi
    68fc:	74 1a                	je     6918 <_ZN5alloc7raw_vec19RawVec$LT$T$C$A$GT$7reserve21do_reserve_and_handle17h15ca14cfba957341E+0x68>
    68fe:	48 89 f8             	mov    %rdi,%rax
    6901:	48 f7 e1             	mul    %rcx
    6904:	49 8b 0e             	mov    (%r14),%rcx
    6907:	48 89 4c 24 18       	mov    %rcx,0x18(%rsp)
    690c:	48 89 44 24 20       	mov    %rax,0x20(%rsp)
    6911:	b8 08 00 00 00       	mov    $0x8,%eax
    6916:	eb 02                	jmp    691a <_ZN5alloc7raw_vec19RawVec$LT$T$C$A$GT$7reserve21do_reserve_and_handle17h15ca14cfba957341E+0x6a>
    6918:	31 c0                	xor    %eax,%eax
    691a:	48 89 44 24 28       	mov    %rax,0x28(%rsp)
    691f:	48 89 e7             	mov    %rsp,%rdi
    6922:	48 8d 4c 24 18       	lea    0x18(%rsp),%rcx
    6927:	48 89 da             	mov    %rbx,%rdx
    692a:	e8 e1 4b 00 00       	callq  b510 <_ZN5alloc7raw_vec11finish_grow17h702349bb08bbbd05E>
    692f:	48 83 3c 24 00       	cmpq   $0x0,(%rsp)
    6934:	75 16                	jne    694c <_ZN5alloc7raw_vec19RawVec$LT$T$C$A$GT$7reserve21do_reserve_and_handle17h15ca14cfba957341E+0x9c>
    6936:	48 8b 44 24 08       	mov    0x8(%rsp),%rax
    693b:	49 89 06             	mov    %rax,(%r14)
    693e:	4d 89 7e 08          	mov    %r15,0x8(%r14)
    6942:	48 83 c4 30          	add    $0x30,%rsp
    6946:	5b                   	pop    %rbx
    6947:	41 5e                	pop    %r14
    6949:	41 5f                	pop    %r15
    694b:	c3                   	retq   
    694c:	48 8b 74 24 10       	mov    0x10(%rsp),%rsi
    6951:	48 85 f6             	test   %rsi,%rsi
    6954:	75 08                	jne    695e <_ZN5alloc7raw_vec19RawVec$LT$T$C$A$GT$7reserve21do_reserve_and_handle17h15ca14cfba957341E+0xae>
    6956:	ff 15 04 85 04 00    	callq  *0x48504(%rip)        # 4ee60 <_GLOBAL_OFFSET_TABLE_+0x570>
    695c:	0f 0b                	ud2    
    695e:	48 8b 7c 24 08       	mov    0x8(%rsp),%rdi
    6963:	ff 15 3f 82 04 00    	callq  *0x4823f(%rip)        # 4eba8 <_GLOBAL_OFFSET_TABLE_+0x2b8>
    6969:	0f 0b                	ud2    
    696b:	0f 1f 44 00 00       	nopl   0x0(%rax,%rax,1)

0000000000006970 <_ZN5alloc7raw_vec19RawVec$LT$T$C$A$GT$7reserve21do_reserve_and_handle17h786e4b312036f1f2E>:
    6970:	41 57                	push   %r15
    6972:	41 56                	push   %r14
    6974:	53                   	push   %rbx
    6975:	48 83 ec 30          	sub    $0x30,%rsp
    6979:	48 01 d6             	add    %rdx,%rsi
    697c:	0f 82 94 00 00 00    	jb     6a16 <_ZN5alloc7raw_vec19RawVec$LT$T$C$A$GT$7reserve21do_reserve_and_handle17h786e4b312036f1f2E+0xa6>
    6982:	49 89 fe             	mov    %rdi,%r14
    6985:	48 8b 7f 08          	mov    0x8(%rdi),%rdi
    6989:	48 8d 04 3f          	lea    (%rdi,%rdi,1),%rax
    698d:	48 39 f0             	cmp    %rsi,%rax
    6990:	48 0f 47 f0          	cmova  %rax,%rsi
    6994:	48 83 fe 05          	cmp    $0x5,%rsi
    6998:	41 bf 04 00 00 00    	mov    $0x4,%r15d
    699e:	4c 0f 43 fe          	cmovae %rsi,%r15
    69a2:	b9 18 00 00 00       	mov    $0x18,%ecx
    69a7:	31 db                	xor    %ebx,%ebx
    69a9:	4c 89 f8             	mov    %r15,%rax
    69ac:	48 f7 e1             	mul    %rcx
    69af:	48 89 c6             	mov    %rax,%rsi
    69b2:	0f 91 c3             	setno  %bl
    69b5:	48 c1 e3 03          	shl    $0x3,%rbx
    69b9:	48 85 ff             	test   %rdi,%rdi
    69bc:	74 1a                	je     69d8 <_ZN5alloc7raw_vec19RawVec$LT$T$C$A$GT$7reserve21do_reserve_and_handle17h786e4b312036f1f2E+0x68>
    69be:	48 89 f8             	mov    %rdi,%rax
    69c1:	48 f7 e1             	mul    %rcx
    69c4:	49 8b 0e             	mov    (%r14),%rcx
    69c7:	48 89 4c 24 18       	mov    %rcx,0x18(%rsp)
    69cc:	48 89 44 24 20       	mov    %rax,0x20(%rsp)
    69d1:	b8 08 00 00 00       	mov    $0x8,%eax
    69d6:	eb 02                	jmp    69da <_ZN5alloc7raw_vec19RawVec$LT$T$C$A$GT$7reserve21do_reserve_and_handle17h786e4b312036f1f2E+0x6a>
    69d8:	31 c0                	xor    %eax,%eax
    69da:	48 89 44 24 28       	mov    %rax,0x28(%rsp)
    69df:	48 89 e7             	mov    %rsp,%rdi
    69e2:	48 8d 4c 24 18       	lea    0x18(%rsp),%rcx
    69e7:	48 89 da             	mov    %rbx,%rdx
    69ea:	e8 21 4b 00 00       	callq  b510 <_ZN5alloc7raw_vec11finish_grow17h702349bb08bbbd05E>
    69ef:	48 83 3c 24 00       	cmpq   $0x0,(%rsp)
    69f4:	75 16                	jne    6a0c <_ZN5alloc7raw_vec19RawVec$LT$T$C$A$GT$7reserve21do_reserve_and_handle17h786e4b312036f1f2E+0x9c>
    69f6:	48 8b 44 24 08       	mov    0x8(%rsp),%rax
    69fb:	49 89 06             	mov    %rax,(%r14)
    69fe:	4d 89 7e 08          	mov    %r15,0x8(%r14)
    6a02:	48 83 c4 30          	add    $0x30,%rsp
    6a06:	5b                   	pop    %rbx
    6a07:	41 5e                	pop    %r14
    6a09:	41 5f                	pop    %r15
    6a0b:	c3                   	retq   
    6a0c:	48 8b 74 24 10       	mov    0x10(%rsp),%rsi
    6a11:	48 85 f6             	test   %rsi,%rsi
    6a14:	75 08                	jne    6a1e <_ZN5alloc7raw_vec19RawVec$LT$T$C$A$GT$7reserve21do_reserve_and_handle17h786e4b312036f1f2E+0xae>
    6a16:	ff 15 44 84 04 00    	callq  *0x48444(%rip)        # 4ee60 <_GLOBAL_OFFSET_TABLE_+0x570>
    6a1c:	0f 0b                	ud2    
    6a1e:	48 8b 7c 24 08       	mov    0x8(%rsp),%rdi
    6a23:	ff 15 7f 81 04 00    	callq  *0x4817f(%rip)        # 4eba8 <_GLOBAL_OFFSET_TABLE_+0x2b8>
    6a29:	0f 0b                	ud2    
    6a2b:	0f 1f 44 00 00       	nopl   0x0(%rax,%rax,1)

0000000000006a30 <_ZN5alloc7raw_vec19RawVec$LT$T$C$A$GT$7reserve21do_reserve_and_handle17ha0473bb1c19af72cE>:
    6a30:	41 56                	push   %r14
    6a32:	53                   	push   %rbx
    6a33:	48 83 ec 38          	sub    $0x38,%rsp
    6a37:	48 01 d6             	add    %rdx,%rsi
    6a3a:	72 7c                	jb     6ab8 <_ZN5alloc7raw_vec19RawVec$LT$T$C$A$GT$7reserve21do_reserve_and_handle17ha0473bb1c19af72cE+0x88>
    6a3c:	49 89 fe             	mov    %rdi,%r14
    6a3f:	48 8b 47 08          	mov    0x8(%rdi),%rax
    6a43:	48 8d 0c 00          	lea    (%rax,%rax,1),%rcx
    6a47:	48 39 f1             	cmp    %rsi,%rcx
    6a4a:	48 0f 47 f1          	cmova  %rcx,%rsi
    6a4e:	48 83 fe 09          	cmp    $0x9,%rsi
    6a52:	bb 08 00 00 00       	mov    $0x8,%ebx
    6a57:	48 0f 43 de          	cmovae %rsi,%rbx
    6a5b:	48 85 c0             	test   %rax,%rax
    6a5e:	74 14                	je     6a74 <_ZN5alloc7raw_vec19RawVec$LT$T$C$A$GT$7reserve21do_reserve_and_handle17ha0473bb1c19af72cE+0x44>
    6a60:	49 8b 0e             	mov    (%r14),%rcx
    6a63:	48 89 4c 24 20       	mov    %rcx,0x20(%rsp)
    6a68:	48 89 44 24 28       	mov    %rax,0x28(%rsp)
    6a6d:	b8 01 00 00 00       	mov    $0x1,%eax
    6a72:	eb 02                	jmp    6a76 <_ZN5alloc7raw_vec19RawVec$LT$T$C$A$GT$7reserve21do_reserve_and_handle17ha0473bb1c19af72cE+0x46>
    6a74:	31 c0                	xor    %eax,%eax
    6a76:	48 89 44 24 30       	mov    %rax,0x30(%rsp)
    6a7b:	48 8d 7c 24 08       	lea    0x8(%rsp),%rdi
    6a80:	48 8d 4c 24 20       	lea    0x20(%rsp),%rcx
    6a85:	ba 01 00 00 00       	mov    $0x1,%edx
    6a8a:	48 89 de             	mov    %rbx,%rsi
    6a8d:	e8 7e 4a 00 00       	callq  b510 <_ZN5alloc7raw_vec11finish_grow17h702349bb08bbbd05E>
    6a92:	48 83 7c 24 08 00    	cmpq   $0x0,0x8(%rsp)
    6a98:	75 14                	jne    6aae <_ZN5alloc7raw_vec19RawVec$LT$T$C$A$GT$7reserve21do_reserve_and_handle17ha0473bb1c19af72cE+0x7e>
    6a9a:	48 8b 44 24 10       	mov    0x10(%rsp),%rax
    6a9f:	49 89 06             	mov    %rax,(%r14)
    6aa2:	49 89 5e 08          	mov    %rbx,0x8(%r14)
    6aa6:	48 83 c4 38          	add    $0x38,%rsp
    6aaa:	5b                   	pop    %rbx
    6aab:	41 5e                	pop    %r14
    6aad:	c3                   	retq   
    6aae:	48 8b 74 24 18       	mov    0x18(%rsp),%rsi
    6ab3:	48 85 f6             	test   %rsi,%rsi
    6ab6:	75 08                	jne    6ac0 <_ZN5alloc7raw_vec19RawVec$LT$T$C$A$GT$7reserve21do_reserve_and_handle17ha0473bb1c19af72cE+0x90>
    6ab8:	ff 15 a2 83 04 00    	callq  *0x483a2(%rip)        # 4ee60 <_GLOBAL_OFFSET_TABLE_+0x570>
    6abe:	0f 0b                	ud2    
    6ac0:	48 8b 7c 24 10       	mov    0x10(%rsp),%rdi
    6ac5:	ff 15 dd 80 04 00    	callq  *0x480dd(%rip)        # 4eba8 <_GLOBAL_OFFSET_TABLE_+0x2b8>
    6acb:	0f 0b                	ud2    
    6acd:	0f 1f 00             	nopl   (%rax)

0000000000006ad0 <_ZN3std2io8buffered9bufwriter18BufWriter$LT$W$GT$14write_all_cold17h858a30ad6be12882E>:
    6ad0:	41 57                	push   %r15
    6ad2:	41 56                	push   %r14
    6ad4:	41 54                	push   %r12
    6ad6:	53                   	push   %rbx
    6ad7:	50                   	push   %rax
    6ad8:	48 89 d3             	mov    %rdx,%rbx
    6adb:	49 89 f7             	mov    %rsi,%r15
    6ade:	49 89 fe             	mov    %rdi,%r14
    6ae1:	48 8b 47 08          	mov    0x8(%rdi),%rax
    6ae5:	48 89 c1             	mov    %rax,%rcx
    6ae8:	48 2b 4f 10          	sub    0x10(%rdi),%rcx
    6aec:	48 39 d1             	cmp    %rdx,%rcx
    6aef:	73 11                	jae    6b02 <_ZN3std2io8buffered9bufwriter18BufWriter$LT$W$GT$14write_all_cold17h858a30ad6be12882E+0x32>
    6af1:	4c 89 f7             	mov    %r14,%rdi
    6af4:	e8 e7 34 01 00       	callq  19fe0 <_ZN3std2io8buffered9bufwriter18BufWriter$LT$W$GT$9flush_buf17hc5dc2ba47e1456d4E>
    6af9:	48 85 c0             	test   %rax,%rax
    6afc:	75 6e                	jne    6b6c <_ZN3std2io8buffered9bufwriter18BufWriter$LT$W$GT$14write_all_cold17h858a30ad6be12882E+0x9c>
    6afe:	49 8b 46 08          	mov    0x8(%r14),%rax
    6b02:	48 39 d8             	cmp    %rbx,%rax
    6b05:	76 21                	jbe    6b28 <_ZN3std2io8buffered9bufwriter18BufWriter$LT$W$GT$14write_all_cold17h858a30ad6be12882E+0x58>
    6b07:	4d 8b 66 10          	mov    0x10(%r14),%r12
    6b0b:	49 8b 3e             	mov    (%r14),%rdi
    6b0e:	4c 01 e7             	add    %r12,%rdi
    6b11:	4c 89 fe             	mov    %r15,%rsi
    6b14:	48 89 da             	mov    %rbx,%rdx
    6b17:	ff 15 a3 81 04 00    	callq  *0x481a3(%rip)        # 4ecc0 <memcpy@GLIBC_2.14>
    6b1d:	49 01 dc             	add    %rbx,%r12
    6b20:	4d 89 66 10          	mov    %r12,0x10(%r14)
    6b24:	31 c0                	xor    %eax,%eax
    6b26:	eb 44                	jmp    6b6c <_ZN3std2io8buffered9bufwriter18BufWriter$LT$W$GT$14write_all_cold17h858a30ad6be12882E+0x9c>
    6b28:	41 c6 46 18 01       	movb   $0x1,0x18(%r14)
    6b2d:	4c 89 ff             	mov    %r15,%rdi
    6b30:	48 89 de             	mov    %rbx,%rsi
    6b33:	e8 58 49 01 00       	callq  1b490 <_ZN3std2io5Write9write_all17h649413e9800bab13E>
    6b38:	48 89 04 24          	mov    %rax,(%rsp)
    6b3c:	48 85 c0             	test   %rax,%rax
    6b3f:	74 24                	je     6b65 <_ZN3std2io8buffered9bufwriter18BufWriter$LT$W$GT$14write_all_cold17h858a30ad6be12882E+0x95>
    6b41:	89 c1                	mov    %eax,%ecx
    6b43:	83 e1 03             	and    $0x3,%ecx
    6b46:	48 83 f9 02          	cmp    $0x2,%rcx
    6b4a:	72 1b                	jb     6b67 <_ZN3std2io8buffered9bufwriter18BufWriter$LT$W$GT$14write_all_cold17h858a30ad6be12882E+0x97>
    6b4c:	83 f9 02             	cmp    $0x2,%ecx
    6b4f:	75 16                	jne    6b67 <_ZN3std2io8buffered9bufwriter18BufWriter$LT$W$GT$14write_all_cold17h858a30ad6be12882E+0x97>
    6b51:	48 89 c1             	mov    %rax,%rcx
    6b54:	48 c1 e9 20          	shr    $0x20,%rcx
    6b58:	83 f9 09             	cmp    $0x9,%ecx
    6b5b:	75 0a                	jne    6b67 <_ZN3std2io8buffered9bufwriter18BufWriter$LT$W$GT$14write_all_cold17h858a30ad6be12882E+0x97>
    6b5d:	48 89 e7             	mov    %rsp,%rdi
    6b60:	e8 4b 24 00 00       	callq  8fb0 <_ZN4core3ptr42drop_in_place$LT$std..io..error..Error$GT$17h7e2bbef85ca14805E>
    6b65:	31 c0                	xor    %eax,%eax
    6b67:	41 c6 46 18 00       	movb   $0x0,0x18(%r14)
    6b6c:	48 83 c4 08          	add    $0x8,%rsp
    6b70:	5b                   	pop    %rbx
    6b71:	41 5c                	pop    %r12
    6b73:	41 5e                	pop    %r14
    6b75:	41 5f                	pop    %r15
    6b77:	c3                   	retq   
    6b78:	0f 1f 84 00 00 00 00 	nopl   0x0(%rax,%rax,1)
    6b7f:	00 

0000000000006b80 <_ZN3std7process5abort17h1b862fc279e68003E>:
    6b80:	50                   	push   %rax
    6b81:	ff 15 39 7e 04 00    	callq  *0x47e39(%rip)        # 4e9c0 <_GLOBAL_OFFSET_TABLE_+0xd0>
    6b87:	0f 0b                	ud2    
    6b89:	0f 1f 80 00 00 00 00 	nopl   0x0(%rax)

0000000000006b90 <_ZN3std4sync4once4Once10call_inner17h187191f7b468d643E>:
    6b90:	55                   	push   %rbp
    6b91:	41 57                	push   %r15
    6b93:	41 56                	push   %r14
    6b95:	41 55                	push   %r13
    6b97:	41 54                	push   %r12
    6b99:	53                   	push   %rbx
    6b9a:	48 83 ec 78          	sub    $0x78,%rsp
    6b9e:	4c 89 44 24 28       	mov    %r8,0x28(%rsp)
    6ba3:	48 89 4c 24 68       	mov    %rcx,0x68(%rsp)
    6ba8:	48 89 54 24 60       	mov    %rdx,0x60(%rsp)
    6bad:	89 74 24 24          	mov    %esi,0x24(%rsp)
    6bb1:	48 89 fb             	mov    %rdi,%rbx
    6bb4:	4c 8b 3f             	mov    (%rdi),%r15
    6bb7:	4c 8d 64 24 38       	lea    0x38(%rsp),%r12
    6bbc:	b9 02 00 00 00       	mov    $0x2,%ecx
    6bc1:	4c 8b 2d b8 80 04 00 	mov    0x480b8(%rip),%r13        # 4ec80 <syscall@GLIBC_2.2.5>
    6bc8:	48 8b 2d b9 7d 04 00 	mov    0x47db9(%rip),%rbp        # 4e988 <__errno_location@GLIBC_2.2.5>
    6bcf:	48 89 7c 24 70       	mov    %rdi,0x70(%rsp)
    6bd4:	4d 85 ff             	test   %r15,%r15
    6bd7:	75 18                	jne    6bf1 <_ZN3std4sync4once4Once10call_inner17h187191f7b468d643E+0x61>
    6bd9:	e9 02 03 00 00       	jmpq   6ee0 <_ZN3std4sync4once4Once10call_inner17h187191f7b468d643E+0x350>
    6bde:	66 90                	xchg   %ax,%ax
    6be0:	4c 8b 3b             	mov    (%rbx),%r15
    6be3:	b9 02 00 00 00       	mov    $0x2,%ecx
    6be8:	4d 85 ff             	test   %r15,%r15
    6beb:	0f 84 ef 02 00 00    	je     6ee0 <_ZN3std4sync4once4Once10call_inner17h187191f7b468d643E+0x350>
    6bf1:	49 83 ff 01          	cmp    $0x1,%r15
    6bf5:	0f 84 45 01 00 00    	je     6d40 <_ZN3std4sync4once4Once10call_inner17h187191f7b468d643E+0x1b0>
    6bfb:	49 83 ff 03          	cmp    $0x3,%r15
    6bff:	0f 84 3a 03 00 00    	je     6f3f <_ZN3std4sync4once4Once10call_inner17h187191f7b468d643E+0x3af>
    6c05:	44 89 f8             	mov    %r15d,%eax
    6c08:	83 e0 03             	and    $0x3,%eax
    6c0b:	83 f8 02             	cmp    $0x2,%eax
    6c0e:	74 1b                	je     6c2b <_ZN3std4sync4once4Once10call_inner17h187191f7b468d643E+0x9b>
    6c10:	e9 06 04 00 00       	jmpq   701b <_ZN3std4sync4once4Once10call_inner17h187191f7b468d643E+0x48b>
    6c15:	66 2e 0f 1f 84 00 00 	nopw   %cs:0x0(%rax,%rax,1)
    6c1c:	00 00 00 
    6c1f:	90                   	nop
    6c20:	44 89 f8             	mov    %r15d,%eax
    6c23:	83 e0 03             	and    $0x3,%eax
    6c26:	83 f8 02             	cmp    $0x2,%eax
    6c29:	75 b5                	jne    6be0 <_ZN3std4sync4once4Once10call_inner17h187191f7b468d643E+0x50>
    6c2b:	66 66 66 64 48 8b 04 	data16 data16 data16 mov %fs:0x0,%rax
    6c32:	25 00 00 00 00 
    6c37:	49 89 c6             	mov    %rax,%r14
    6c3a:	0f b6 80 f1 ff ff ff 	movzbl -0xf(%rax),%eax
    6c41:	3c 01                	cmp    $0x1,%al
    6c43:	74 27                	je     6c6c <_ZN3std4sync4once4Once10call_inner17h187191f7b468d643E+0xdc>
    6c45:	84 c0                	test   %al,%al
    6c47:	0f 85 01 03 00 00    	jne    6f4e <_ZN3std4sync4once4Once10call_inner17h187191f7b468d643E+0x3be>
    6c4d:	49 8d be b0 ff ff ff 	lea    -0x50(%r14),%rdi
    6c54:	48 8d 35 25 af 01 00 	lea    0x1af25(%rip),%rsi        # 21b80 <_ZN3std10sys_common11thread_info11THREAD_INFO7__getit7destroy17hbf6b0766308adc8aE>
    6c5b:	ff 15 ef 82 04 00    	callq  *0x482ef(%rip)        # 4ef50 <_GLOBAL_OFFSET_TABLE_+0x660>
    6c61:	4c 89 f0             	mov    %r14,%rax
    6c64:	41 c6 86 f1 ff ff ff 	movb   $0x1,-0xf(%r14)
    6c6b:	01 
    6c6c:	4c 89 f0             	mov    %r14,%rax
    6c6f:	49 83 be b0 ff ff ff 	cmpq   $0x0,-0x50(%r14)
    6c76:	00 
    6c77:	0f 85 f0 02 00 00    	jne    6f6d <_ZN3std4sync4once4Once10call_inner17h187191f7b468d643E+0x3dd>
    6c7d:	4c 89 f0             	mov    %r14,%rax
    6c80:	49 c7 86 b0 ff ff ff 	movq   $0xffffffffffffffff,-0x50(%r14)
    6c87:	ff ff ff ff 
    6c8b:	41 83 be b8 ff ff ff 	cmpl   $0x2,-0x48(%r14)
    6c92:	02 
    6c93:	75 2b                	jne    6cc0 <_ZN3std4sync4once4Once10call_inner17h187191f7b468d643E+0x130>
    6c95:	31 ff                	xor    %edi,%edi
    6c97:	ff 15 23 83 04 00    	callq  *0x48323(%rip)        # 4efc0 <_GLOBAL_OFFSET_TABLE_+0x6d0>
    6c9d:	48 89 c1             	mov    %rax,%rcx
    6ca0:	4c 89 f0             	mov    %r14,%rax
    6ca3:	49 c7 86 b8 ff ff ff 	movq   $0x0,-0x48(%r14)
    6caa:	00 00 00 00 
    6cae:	49 89 8e d0 ff ff ff 	mov    %rcx,-0x30(%r14)
    6cb5:	eb 13                	jmp    6cca <_ZN3std4sync4once4Once10call_inner17h187191f7b468d643E+0x13a>
    6cb7:	66 0f 1f 84 00 00 00 	nopw   0x0(%rax,%rax,1)
    6cbe:	00 00 
    6cc0:	4c 89 f0             	mov    %r14,%rax
    6cc3:	49 8b 8e d0 ff ff ff 	mov    -0x30(%r14),%rcx
    6cca:	f0 48 83 01 01       	lock addq $0x1,(%rcx)
    6ccf:	0f 8e 94 02 00 00    	jle    6f69 <_ZN3std4sync4once4Once10call_inner17h187191f7b468d643E+0x3d9>
    6cd5:	4c 89 f0             	mov    %r14,%rax
    6cd8:	49 83 86 b0 ff ff ff 	addq   $0x1,-0x50(%r14)
    6cdf:	01 
    6ce0:	48 85 c9             	test   %rcx,%rcx
    6ce3:	0f 84 65 02 00 00    	je     6f4e <_ZN3std4sync4once4Once10call_inner17h187191f7b468d643E+0x3be>
    6ce9:	4c 89 f8             	mov    %r15,%rax
    6cec:	48 83 e0 fc          	and    $0xfffffffffffffffc,%rax
    6cf0:	48 89 4c 24 08       	mov    %rcx,0x8(%rsp)
    6cf5:	c6 44 24 18 00       	movb   $0x0,0x18(%rsp)
    6cfa:	48 89 44 24 10       	mov    %rax,0x10(%rsp)
    6cff:	4c 89 f8             	mov    %r15,%rax
    6d02:	48 8d 4c 24 0a       	lea    0xa(%rsp),%rcx
    6d07:	f0 48 0f b1 0b       	lock cmpxchg %rcx,(%rbx)
    6d0c:	74 42                	je     6d50 <_ZN3std4sync4once4Once10call_inner17h187191f7b468d643E+0x1c0>
    6d0e:	49 89 c7             	mov    %rax,%r15
    6d11:	48 8b 44 24 08       	mov    0x8(%rsp),%rax
    6d16:	48 85 c0             	test   %rax,%rax
    6d19:	0f 84 01 ff ff ff    	je     6c20 <_ZN3std4sync4once4Once10call_inner17h187191f7b468d643E+0x90>
    6d1f:	f0 48 83 28 01       	lock subq $0x1,(%rax)
    6d24:	0f 85 f6 fe ff ff    	jne    6c20 <_ZN3std4sync4once4Once10call_inner17h187191f7b468d643E+0x90>
    6d2a:	48 8b 7c 24 08       	mov    0x8(%rsp),%rdi
    6d2f:	e8 dc 46 00 00       	callq  b410 <_ZN5alloc4sync12Arc$LT$T$GT$9drop_slow17h28e2460b1a201c63E>
    6d34:	e9 e7 fe ff ff       	jmpq   6c20 <_ZN3std4sync4once4Once10call_inner17h187191f7b468d643E+0x90>
    6d39:	0f 1f 80 00 00 00 00 	nopl   0x0(%rax)
    6d40:	80 7c 24 24 00       	cmpb   $0x0,0x24(%rsp)
    6d45:	0f 85 95 01 00 00    	jne    6ee0 <_ZN3std4sync4once4Once10call_inner17h187191f7b468d643E+0x350>
    6d4b:	e9 86 02 00 00       	jmpq   6fd6 <_ZN3std4sync4once4Once10call_inner17h187191f7b468d643E+0x446>
    6d50:	8a 44 24 18          	mov    0x18(%rsp),%al
    6d54:	84 c0                	test   %al,%al
    6d56:	74 35                	je     6d8d <_ZN3std4sync4once4Once10call_inner17h187191f7b468d643E+0x1fd>
    6d58:	48 8b 44 24 08       	mov    0x8(%rsp),%rax
    6d5d:	48 85 c0             	test   %rax,%rax
    6d60:	0f 84 7a fe ff ff    	je     6be0 <_ZN3std4sync4once4Once10call_inner17h187191f7b468d643E+0x50>
    6d66:	f0 48 83 28 01       	lock subq $0x1,(%rax)
    6d6b:	0f 85 6f fe ff ff    	jne    6be0 <_ZN3std4sync4once4Once10call_inner17h187191f7b468d643E+0x50>
    6d71:	48 8b 7c 24 08       	mov    0x8(%rsp),%rdi
    6d76:	e8 95 46 00 00       	callq  b410 <_ZN5alloc4sync12Arc$LT$T$GT$9drop_slow17h28e2460b1a201c63E>
    6d7b:	e9 60 fe ff ff       	jmpq   6be0 <_ZN3std4sync4once4Once10call_inner17h187191f7b468d643E+0x50>
    6d80:	8a 44 24 18          	mov    0x18(%rsp),%al
    6d84:	84 c0                	test   %al,%al
    6d86:	48 8b 5c 24 70       	mov    0x70(%rsp),%rbx
    6d8b:	75 cb                	jne    6d58 <_ZN3std4sync4once4Once10call_inner17h187191f7b468d643E+0x1c8>
    6d8d:	4c 89 f0             	mov    %r14,%rax
    6d90:	41 8a 86 f1 ff ff ff 	mov    -0xf(%r14),%al
    6d97:	3c 01                	cmp    $0x1,%al
    6d99:	74 27                	je     6dc2 <_ZN3std4sync4once4Once10call_inner17h187191f7b468d643E+0x232>
    6d9b:	84 c0                	test   %al,%al
    6d9d:	0f 85 f1 01 00 00    	jne    6f94 <_ZN3std4sync4once4Once10call_inner17h187191f7b468d643E+0x404>
    6da3:	49 8d be b0 ff ff ff 	lea    -0x50(%r14),%rdi
    6daa:	48 8d 35 cf ad 01 00 	lea    0x1adcf(%rip),%rsi        # 21b80 <_ZN3std10sys_common11thread_info11THREAD_INFO7__getit7destroy17hbf6b0766308adc8aE>
    6db1:	ff 15 99 81 04 00    	callq  *0x48199(%rip)        # 4ef50 <_GLOBAL_OFFSET_TABLE_+0x660>
    6db7:	4c 89 f0             	mov    %r14,%rax
    6dba:	41 c6 86 f1 ff ff ff 	movb   $0x1,-0xf(%r14)
    6dc1:	01 
    6dc2:	4c 89 f0             	mov    %r14,%rax
    6dc5:	49 83 be b0 ff ff ff 	cmpq   $0x0,-0x50(%r14)
    6dcc:	00 
    6dcd:	0f 85 dc 01 00 00    	jne    6faf <_ZN3std4sync4once4Once10call_inner17h187191f7b468d643E+0x41f>
    6dd3:	4c 89 f0             	mov    %r14,%rax
    6dd6:	49 c7 86 b0 ff ff ff 	movq   $0xffffffffffffffff,-0x50(%r14)
    6ddd:	ff ff ff ff 
    6de1:	41 83 be b8 ff ff ff 	cmpl   $0x2,-0x48(%r14)
    6de8:	02 
    6de9:	75 25                	jne    6e10 <_ZN3std4sync4once4Once10call_inner17h187191f7b468d643E+0x280>
    6deb:	31 ff                	xor    %edi,%edi
    6ded:	ff 15 cd 81 04 00    	callq  *0x481cd(%rip)        # 4efc0 <_GLOBAL_OFFSET_TABLE_+0x6d0>
    6df3:	49 89 c7             	mov    %rax,%r15
    6df6:	4c 89 f0             	mov    %r14,%rax
    6df9:	49 c7 86 b8 ff ff ff 	movq   $0x0,-0x48(%r14)
    6e00:	00 00 00 00 
    6e04:	4d 89 be d0 ff ff ff 	mov    %r15,-0x30(%r14)
    6e0b:	eb 0d                	jmp    6e1a <_ZN3std4sync4once4Once10call_inner17h187191f7b468d643E+0x28a>
    6e0d:	0f 1f 00             	nopl   (%rax)
    6e10:	4c 89 f0             	mov    %r14,%rax
    6e13:	4d 8b be d0 ff ff ff 	mov    -0x30(%r14),%r15
    6e1a:	f0 49 83 07 01       	lock addq $0x1,(%r15)
    6e1f:	0f 8e 44 01 00 00    	jle    6f69 <_ZN3std4sync4once4Once10call_inner17h187191f7b468d643E+0x3d9>
    6e25:	4c 89 f0             	mov    %r14,%rax
    6e28:	49 83 86 b0 ff ff ff 	addq   $0x1,-0x50(%r14)
    6e2f:	01 
    6e30:	4d 85 ff             	test   %r15,%r15
    6e33:	0f 84 5b 01 00 00    	je     6f94 <_ZN3std4sync4once4Once10call_inner17h187191f7b468d643E+0x404>
    6e39:	f0 41 83 6f 28 01    	lock subl $0x1,0x28(%r15)
    6e3f:	75 1f                	jne    6e60 <_ZN3std4sync4once4Once10call_inner17h187191f7b468d643E+0x2d0>
    6e41:	f0 49 83 2f 01       	lock subq $0x1,(%r15)
    6e46:	0f 85 34 ff ff ff    	jne    6d80 <_ZN3std4sync4once4Once10call_inner17h187191f7b468d643E+0x1f0>
    6e4c:	4c 89 ff             	mov    %r15,%rdi
    6e4f:	e8 bc 45 00 00       	callq  b410 <_ZN5alloc4sync12Arc$LT$T$GT$9drop_slow17h28e2460b1a201c63E>
    6e54:	e9 27 ff ff ff       	jmpq   6d80 <_ZN3std4sync4once4Once10call_inner17h187191f7b468d643E+0x1f0>
    6e59:	0f 1f 80 00 00 00 00 	nopl   0x0(%rax)
    6e60:	49 8d 5f 28          	lea    0x28(%r15),%rbx
    6e64:	eb 17                	jmp    6e7d <_ZN3std4sync4once4Once10call_inner17h187191f7b468d643E+0x2ed>
    6e66:	66 2e 0f 1f 84 00 00 	nopw   %cs:0x0(%rax,%rax,1)
    6e6d:	00 00 00 
    6e70:	b8 01 00 00 00       	mov    $0x1,%eax
    6e75:	31 c9                	xor    %ecx,%ecx
    6e77:	f0 0f b1 0b          	lock cmpxchg %ecx,(%rbx)
    6e7b:	74 c4                	je     6e41 <_ZN3std4sync4once4Once10call_inner17h187191f7b468d643E+0x2b1>
    6e7d:	48 c7 44 24 30 00 00 	movq   $0x0,0x30(%rsp)
    6e84:	00 00 
    6e86:	66 2e 0f 1f 84 00 00 	nopw   %cs:0x0(%rax,%rax,1)
    6e8d:	00 00 00 
    6e90:	8b 03                	mov    (%rbx),%eax
    6e92:	83 f8 ff             	cmp    $0xffffffff,%eax
    6e95:	75 d9                	jne    6e70 <_ZN3std4sync4once4Once10call_inner17h187191f7b468d643E+0x2e0>
    6e97:	4c 8b 44 24 30       	mov    0x30(%rsp),%r8
    6e9c:	4d 85 c0             	test   %r8,%r8
    6e9f:	4d 0f 45 c4          	cmovne %r12,%r8
    6ea3:	c7 04 24 ff ff ff ff 	movl   $0xffffffff,(%rsp)
    6eaa:	bf ca 00 00 00       	mov    $0xca,%edi
    6eaf:	48 89 de             	mov    %rbx,%rsi
    6eb2:	ba 89 00 00 00       	mov    $0x89,%edx
    6eb7:	b9 ff ff ff ff       	mov    $0xffffffff,%ecx
    6ebc:	45 31 c9             	xor    %r9d,%r9d
    6ebf:	31 c0                	xor    %eax,%eax
    6ec1:	41 ff d5             	callq  *%r13
    6ec4:	48 85 c0             	test   %rax,%rax
    6ec7:	79 a7                	jns    6e70 <_ZN3std4sync4once4Once10call_inner17h187191f7b468d643E+0x2e0>
    6ec9:	ff d5                	callq  *%rbp
    6ecb:	83 38 04             	cmpl   $0x4,(%rax)
    6ece:	74 c0                	je     6e90 <_ZN3std4sync4once4Once10call_inner17h187191f7b468d643E+0x300>
    6ed0:	eb 9e                	jmp    6e70 <_ZN3std4sync4once4Once10call_inner17h187191f7b468d643E+0x2e0>
    6ed2:	66 2e 0f 1f 84 00 00 	nopw   %cs:0x0(%rax,%rax,1)
    6ed9:	00 00 00 
    6edc:	0f 1f 40 00          	nopl   0x0(%rax)
    6ee0:	4c 89 f8             	mov    %r15,%rax
    6ee3:	f0 48 0f b1 0b       	lock cmpxchg %rcx,(%rbx)
    6ee8:	74 0e                	je     6ef8 <_ZN3std4sync4once4Once10call_inner17h187191f7b468d643E+0x368>
    6eea:	49 89 c7             	mov    %rax,%r15
    6eed:	4d 85 ff             	test   %r15,%r15
    6ef0:	0f 85 fb fc ff ff    	jne    6bf1 <_ZN3std4sync4once4Once10call_inner17h187191f7b468d643E+0x61>
    6ef6:	eb e8                	jmp    6ee0 <_ZN3std4sync4once4Once10call_inner17h187191f7b468d643E+0x350>
    6ef8:	48 89 5c 24 08       	mov    %rbx,0x8(%rsp)
    6efd:	48 c7 44 24 10 01 00 	movq   $0x1,0x10(%rsp)
    6f04:	00 00 
    6f06:	49 83 ff 01          	cmp    $0x1,%r15
    6f0a:	0f 94 44 24 38       	sete   0x38(%rsp)
    6f0f:	48 c7 44 24 30 03 00 	movq   $0x3,0x30(%rsp)
    6f16:	00 00 
    6f18:	48 8d 74 24 30       	lea    0x30(%rsp),%rsi
    6f1d:	48 8b 7c 24 60       	mov    0x60(%rsp),%rdi
    6f22:	48 8b 44 24 68       	mov    0x68(%rsp),%rax
    6f27:	ff 50 20             	callq  *0x20(%rax)
    6f2a:	48 8b 44 24 30       	mov    0x30(%rsp),%rax
    6f2f:	48 89 44 24 10       	mov    %rax,0x10(%rsp)
    6f34:	48 8d 7c 24 08       	lea    0x8(%rsp),%rdi
    6f39:	ff 15 a9 7d 04 00    	callq  *0x47da9(%rip)        # 4ece8 <_GLOBAL_OFFSET_TABLE_+0x3f8>
    6f3f:	48 83 c4 78          	add    $0x78,%rsp
    6f43:	5b                   	pop    %rbx
    6f44:	41 5c                	pop    %r12
    6f46:	41 5d                	pop    %r13
    6f48:	41 5e                	pop    %r14
    6f4a:	41 5f                	pop    %r15
    6f4c:	5d                   	pop    %rbp
    6f4d:	c3                   	retq   
    6f4e:	48 8d 3d 63 7c 03 00 	lea    0x37c63(%rip),%rdi        # 3ebb8 <str.5+0x638>
    6f55:	48 8d 15 5c 58 04 00 	lea    0x4585c(%rip),%rdx        # 4c7b8 <__do_global_dtors_aux_fini_array_entry+0x660>
    6f5c:	be 5e 00 00 00       	mov    $0x5e,%esi
    6f61:	ff 15 59 7e 04 00    	callq  *0x47e59(%rip)        # 4edc0 <_GLOBAL_OFFSET_TABLE_+0x4d0>
    6f67:	0f 0b                	ud2    
    6f69:	0f 0b                	ud2    
    6f6b:	0f 0b                	ud2    
    6f6d:	48 8d 3d 0c 63 03 00 	lea    0x3630c(%rip),%rdi        # 3d280 <_fini+0xba0>
    6f74:	48 8d 0d a5 54 04 00 	lea    0x454a5(%rip),%rcx        # 4c420 <__do_global_dtors_aux_fini_array_entry+0x2c8>
    6f7b:	4c 8d 05 16 5e 04 00 	lea    0x45e16(%rip),%r8        # 4cd98 <__do_global_dtors_aux_fini_array_entry+0xc40>
    6f82:	48 8d 54 24 30       	lea    0x30(%rsp),%rdx
    6f87:	be 10 00 00 00       	mov    $0x10,%esi
    6f8c:	ff 15 46 7b 04 00    	callq  *0x47b46(%rip)        # 4ead8 <_GLOBAL_OFFSET_TABLE_+0x1e8>
    6f92:	0f 0b                	ud2    
    6f94:	48 8d 3d 1d 7c 03 00 	lea    0x37c1d(%rip),%rdi        # 3ebb8 <str.5+0x638>
    6f9b:	48 8d 15 16 58 04 00 	lea    0x45816(%rip),%rdx        # 4c7b8 <__do_global_dtors_aux_fini_array_entry+0x660>
    6fa2:	be 5e 00 00 00       	mov    $0x5e,%esi
    6fa7:	ff 15 13 7e 04 00    	callq  *0x47e13(%rip)        # 4edc0 <_GLOBAL_OFFSET_TABLE_+0x4d0>
    6fad:	eb 25                	jmp    6fd4 <_ZN3std4sync4once4Once10call_inner17h187191f7b468d643E+0x444>
    6faf:	48 8d 3d ca 62 03 00 	lea    0x362ca(%rip),%rdi        # 3d280 <_fini+0xba0>
    6fb6:	48 8d 0d 63 54 04 00 	lea    0x45463(%rip),%rcx        # 4c420 <__do_global_dtors_aux_fini_array_entry+0x2c8>
    6fbd:	4c 8d 05 d4 5d 04 00 	lea    0x45dd4(%rip),%r8        # 4cd98 <__do_global_dtors_aux_fini_array_entry+0xc40>
    6fc4:	48 8d 54 24 30       	lea    0x30(%rsp),%rdx
    6fc9:	be 10 00 00 00       	mov    $0x10,%esi
    6fce:	ff 15 04 7b 04 00    	callq  *0x47b04(%rip)        # 4ead8 <_GLOBAL_OFFSET_TABLE_+0x1e8>
    6fd4:	0f 0b                	ud2    
    6fd6:	48 8d 05 fb 5c 04 00 	lea    0x45cfb(%rip),%rax        # 4ccd8 <__do_global_dtors_aux_fini_array_entry+0xb80>
    6fdd:	48 89 44 24 30       	mov    %rax,0x30(%rsp)
    6fe2:	48 c7 44 24 38 01 00 	movq   $0x1,0x38(%rsp)
    6fe9:	00 00 
    6feb:	48 c7 44 24 40 00 00 	movq   $0x0,0x40(%rsp)
    6ff2:	00 00 
    6ff4:	48 8d 05 dd 73 03 00 	lea    0x373dd(%rip),%rax        # 3e3d8 <_fini+0x1cf8>
    6ffb:	48 89 44 24 50       	mov    %rax,0x50(%rsp)
    7000:	48 c7 44 24 58 00 00 	movq   $0x0,0x58(%rsp)
    7007:	00 00 
    7009:	48 8d 7c 24 30       	lea    0x30(%rsp),%rdi
    700e:	48 8b 74 24 28       	mov    0x28(%rsp),%rsi
    7013:	ff 15 1f 7a 04 00    	callq  *0x47a1f(%rip)        # 4ea38 <_GLOBAL_OFFSET_TABLE_+0x148>
    7019:	0f 0b                	ud2    
    701b:	48 8d 3d cf 80 03 00 	lea    0x380cf(%rip),%rdi        # 3f0f1 <str.5+0xb71>
    7022:	be 40 00 00 00       	mov    $0x40,%esi
    7027:	48 8b 54 24 28       	mov    0x28(%rsp),%rdx
    702c:	ff 15 3e 7f 04 00    	callq  *0x47f3e(%rip)        # 4ef70 <_GLOBAL_OFFSET_TABLE_+0x680>
    7032:	0f 0b                	ud2    
    7034:	48 89 c3             	mov    %rax,%rbx
    7037:	48 8d 7c 24 08       	lea    0x8(%rsp),%rdi
    703c:	e8 cf 20 00 00       	callq  9110 <_ZN4core3ptr49drop_in_place$LT$std..sync..once..WaiterQueue$GT$17hd9ab005d8a7764faE>
    7041:	eb 39                	jmp    707c <_ZN3std4sync4once4Once10call_inner17h187191f7b468d643E+0x4ec>
    7043:	ff 15 37 7b 04 00    	callq  *0x47b37(%rip)        # 4eb80 <_GLOBAL_OFFSET_TABLE_+0x290>
    7049:	0f 0b                	ud2    
    704b:	48 89 c3             	mov    %rax,%rbx
    704e:	49 8d be b0 ff ff ff 	lea    -0x50(%r14),%rdi
    7055:	e8 86 15 00 00       	callq  85e0 <_ZN4core3ptr115drop_in_place$LT$core..cell..RefMut$LT$core..option..Option$LT$std..sys_common..thread_info..ThreadInfo$GT$$GT$$GT$17h477f129f815b739dE>
    705a:	eb 16                	jmp    7072 <_ZN3std4sync4once4Once10call_inner17h187191f7b468d643E+0x4e2>
    705c:	eb 11                	jmp    706f <_ZN3std4sync4once4Once10call_inner17h187191f7b468d643E+0x4df>
    705e:	48 89 c3             	mov    %rax,%rbx
    7061:	49 8d be b0 ff ff ff 	lea    -0x50(%r14),%rdi
    7068:	e8 73 15 00 00       	callq  85e0 <_ZN4core3ptr115drop_in_place$LT$core..cell..RefMut$LT$core..option..Option$LT$std..sys_common..thread_info..ThreadInfo$GT$$GT$$GT$17h477f129f815b739dE>
    706d:	eb 0d                	jmp    707c <_ZN3std4sync4once4Once10call_inner17h187191f7b468d643E+0x4ec>
    706f:	48 89 c3             	mov    %rax,%rbx
    7072:	48 8d 7c 24 08       	lea    0x8(%rsp),%rdi
    7077:	e8 f4 1f 00 00       	callq  9070 <_ZN4core3ptr44drop_in_place$LT$std..sync..once..Waiter$GT$17h180e4680e5db9120E>
    707c:	48 89 df             	mov    %rbx,%rdi
    707f:	e8 dc ef ff ff       	callq  6060 <_Unwind_Resume@plt>
    7084:	0f 0b                	ud2    
    7086:	66 2e 0f 1f 84 00 00 	nopw   %cs:0x0(%rax,%rax,1)
    708d:	00 00 00 

0000000000007090 <_ZN3std9panicking11panic_count17is_zero_slow_path17h3306fc8575132aa8E>:
    7090:	50                   	push   %rax
    7091:	66 66 66 64 48 8b 04 	data16 data16 data16 mov %fs:0x0,%rax
    7098:	25 00 00 00 00 
    709d:	48 83 b8 f8 ff ff ff 	cmpq   $0x0,-0x8(%rax)
    70a4:	00 
    70a5:	0f 94 c0             	sete   %al
    70a8:	59                   	pop    %rcx
    70a9:	c3                   	retq   
    70aa:	66 0f 1f 44 00 00    	nopw   0x0(%rax,%rax,1)

00000000000070b0 <_ZN3std3sys4unix5locks11futex_mutex5Mutex14lock_contended17hc08681270eafe649E>:
    70b0:	41 56                	push   %r14
    70b2:	53                   	push   %rbx
    70b3:	48 83 ec 18          	sub    $0x18,%rsp
    70b7:	48 89 fb             	mov    %rdi,%rbx
    70ba:	8b 07                	mov    (%rdi),%eax
    70bc:	83 f8 01             	cmp    $0x1,%eax
    70bf:	75 21                	jne    70e2 <_ZN3std3sys4unix5locks11futex_mutex5Mutex14lock_contended17hc08681270eafe649E+0x32>
    70c1:	b9 9d ff ff ff       	mov    $0xffffff9d,%ecx
    70c6:	66 2e 0f 1f 84 00 00 	nopw   %cs:0x0(%rax,%rax,1)
    70cd:	00 00 00 
    70d0:	f3 90                	pause  
    70d2:	8b 03                	mov    (%rbx),%eax
    70d4:	83 f8 01             	cmp    $0x1,%eax
    70d7:	75 09                	jne    70e2 <_ZN3std3sys4unix5locks11futex_mutex5Mutex14lock_contended17hc08681270eafe649E+0x32>
    70d9:	8d 51 01             	lea    0x1(%rcx),%edx
    70dc:	85 c9                	test   %ecx,%ecx
    70de:	89 d1                	mov    %edx,%ecx
    70e0:	75 ee                	jne    70d0 <_ZN3std3sys4unix5locks11futex_mutex5Mutex14lock_contended17hc08681270eafe649E+0x20>
    70e2:	85 c0                	test   %eax,%eax
    70e4:	75 15                	jne    70fb <_ZN3std3sys4unix5locks11futex_mutex5Mutex14lock_contended17hc08681270eafe649E+0x4b>
    70e6:	b9 01 00 00 00       	mov    $0x1,%ecx
    70eb:	31 c0                	xor    %eax,%eax
    70ed:	f0 0f b1 0b          	lock cmpxchg %ecx,(%rbx)
    70f1:	75 08                	jne    70fb <_ZN3std3sys4unix5locks11futex_mutex5Mutex14lock_contended17hc08681270eafe649E+0x4b>
    70f3:	48 83 c4 18          	add    $0x18,%rsp
    70f7:	5b                   	pop    %rbx
    70f8:	41 5e                	pop    %r14
    70fa:	c3                   	retq   
    70fb:	49 89 e6             	mov    %rsp,%r14
    70fe:	66 90                	xchg   %ax,%ax
    7100:	83 f8 02             	cmp    $0x2,%eax
    7103:	74 0b                	je     7110 <_ZN3std3sys4unix5locks11futex_mutex5Mutex14lock_contended17hc08681270eafe649E+0x60>
    7105:	b8 02 00 00 00       	mov    $0x2,%eax
    710a:	87 03                	xchg   %eax,(%rbx)
    710c:	85 c0                	test   %eax,%eax
    710e:	74 e3                	je     70f3 <_ZN3std3sys4unix5locks11futex_mutex5Mutex14lock_contended17hc08681270eafe649E+0x43>
    7110:	48 c7 04 24 00 00 00 	movq   $0x0,(%rsp)
    7117:	00 
    7118:	48 89 df             	mov    %rbx,%rdi
    711b:	be 02 00 00 00       	mov    $0x2,%esi
    7120:	4c 89 f2             	mov    %r14,%rdx
    7123:	e8 d8 9c 01 00       	callq  20e00 <_ZN3std3sys4unix5futex10futex_wait17hb9562be68bc0f4c0E>
    7128:	8b 03                	mov    (%rbx),%eax
    712a:	83 f8 01             	cmp    $0x1,%eax
    712d:	75 d1                	jne    7100 <_ZN3std3sys4unix5locks11futex_mutex5Mutex14lock_contended17hc08681270eafe649E+0x50>
    712f:	b9 9d ff ff ff       	mov    $0xffffff9d,%ecx
    7134:	66 2e 0f 1f 84 00 00 	nopw   %cs:0x0(%rax,%rax,1)
    713b:	00 00 00 
    713e:	66 90                	xchg   %ax,%ax
    7140:	f3 90                	pause  
    7142:	8b 03                	mov    (%rbx),%eax
    7144:	8d 51 01             	lea    0x1(%rcx),%edx
    7147:	83 f8 01             	cmp    $0x1,%eax
    714a:	75 b4                	jne    7100 <_ZN3std3sys4unix5locks11futex_mutex5Mutex14lock_contended17hc08681270eafe649E+0x50>
    714c:	85 c9                	test   %ecx,%ecx
    714e:	89 d1                	mov    %edx,%ecx
    7150:	75 ee                	jne    7140 <_ZN3std3sys4unix5locks11futex_mutex5Mutex14lock_contended17hc08681270eafe649E+0x90>
    7152:	eb ac                	jmp    7100 <_ZN3std3sys4unix5locks11futex_mutex5Mutex14lock_contended17hc08681270eafe649E+0x50>
    7154:	66 2e 0f 1f 84 00 00 	nopw   %cs:0x0(%rax,%rax,1)
    715b:	00 00 00 
    715e:	66 90                	xchg   %ax,%ax

0000000000007160 <_ZN3std3sys4unix5locks12futex_rwlock6RwLock14read_contended17h793305c484369a20E>:
    7160:	41 56                	push   %r14
    7162:	53                   	push   %rbx
    7163:	48 83 ec 38          	sub    $0x38,%rsp
    7167:	48 89 fb             	mov    %rdi,%rbx
    716a:	8b 07                	mov    (%rdi),%eax
    716c:	3d ff ff ff 3f       	cmp    $0x3fffffff,%eax
    7171:	75 21                	jne    7194 <_ZN3std3sys4unix5locks12futex_rwlock6RwLock14read_contended17h793305c484369a20E+0x34>
    7173:	b9 9d ff ff ff       	mov    $0xffffff9d,%ecx
    7178:	0f 1f 84 00 00 00 00 	nopl   0x0(%rax,%rax,1)
    717f:	00 
    7180:	f3 90                	pause  
    7182:	8b 03                	mov    (%rbx),%eax
    7184:	3d ff ff ff 3f       	cmp    $0x3fffffff,%eax
    7189:	75 09                	jne    7194 <_ZN3std3sys4unix5locks12futex_rwlock6RwLock14read_contended17h793305c484369a20E+0x34>
    718b:	8d 51 01             	lea    0x1(%rcx),%edx
    718e:	85 c9                	test   %ecx,%ecx
    7190:	89 d1                	mov    %edx,%ecx
    7192:	75 ec                	jne    7180 <_ZN3std3sys4unix5locks12futex_rwlock6RwLock14read_contended17h793305c484369a20E+0x20>
    7194:	4c 8d 74 24 08       	lea    0x8(%rsp),%r14
    7199:	eb 0e                	jmp    71a9 <_ZN3std3sys4unix5locks12futex_rwlock6RwLock14read_contended17h793305c484369a20E+0x49>
    719b:	0f 1f 44 00 00       	nopl   0x0(%rax,%rax,1)
    71a0:	8d 48 01             	lea    0x1(%rax),%ecx
    71a3:	f0 0f b1 0b          	lock cmpxchg %ecx,(%rbx)
    71a7:	74 7d                	je     7226 <_ZN3std3sys4unix5locks12futex_rwlock6RwLock14read_contended17h793305c484369a20E+0xc6>
    71a9:	89 c1                	mov    %eax,%ecx
    71ab:	f7 d1                	not    %ecx
    71ad:	f7 c1 fe ff ff 3f    	test   $0x3ffffffe,%ecx
    71b3:	74 0e                	je     71c3 <_ZN3std3sys4unix5locks12futex_rwlock6RwLock14read_contended17h793305c484369a20E+0x63>
    71b5:	89 c1                	mov    %eax,%ecx
    71b7:	81 e1 00 00 00 40    	and    $0x40000000,%ecx
    71bd:	75 04                	jne    71c3 <_ZN3std3sys4unix5locks12futex_rwlock6RwLock14read_contended17h793305c484369a20E+0x63>
    71bf:	85 c0                	test   %eax,%eax
    71c1:	79 dd                	jns    71a0 <_ZN3std3sys4unix5locks12futex_rwlock6RwLock14read_contended17h793305c484369a20E+0x40>
    71c3:	89 c1                	mov    %eax,%ecx
    71c5:	81 e1 ff ff ff 3f    	and    $0x3fffffff,%ecx
    71cb:	81 f9 fe ff ff 3f    	cmp    $0x3ffffffe,%ecx
    71d1:	74 5b                	je     722e <_ZN3std3sys4unix5locks12futex_rwlock6RwLock14read_contended17h793305c484369a20E+0xce>
    71d3:	89 c6                	mov    %eax,%esi
    71d5:	81 ce 00 00 00 40    	or     $0x40000000,%esi
    71db:	a9 00 00 00 40       	test   $0x40000000,%eax
    71e0:	75 06                	jne    71e8 <_ZN3std3sys4unix5locks12futex_rwlock6RwLock14read_contended17h793305c484369a20E+0x88>
    71e2:	f0 0f b1 33          	lock cmpxchg %esi,(%rbx)
    71e6:	75 c1                	jne    71a9 <_ZN3std3sys4unix5locks12futex_rwlock6RwLock14read_contended17h793305c484369a20E+0x49>
    71e8:	48 c7 44 24 08 00 00 	movq   $0x0,0x8(%rsp)
    71ef:	00 00 
    71f1:	48 89 df             	mov    %rbx,%rdi
    71f4:	4c 89 f2             	mov    %r14,%rdx
    71f7:	e8 04 9c 01 00       	callq  20e00 <_ZN3std3sys4unix5futex10futex_wait17hb9562be68bc0f4c0E>
    71fc:	8b 03                	mov    (%rbx),%eax
    71fe:	3d ff ff ff 3f       	cmp    $0x3fffffff,%eax
    7203:	75 a4                	jne    71a9 <_ZN3std3sys4unix5locks12futex_rwlock6RwLock14read_contended17h793305c484369a20E+0x49>
    7205:	b9 9d ff ff ff       	mov    $0xffffff9d,%ecx
    720a:	66 0f 1f 44 00 00    	nopw   0x0(%rax,%rax,1)
    7210:	f3 90                	pause  
    7212:	8b 03                	mov    (%rbx),%eax
    7214:	8d 51 01             	lea    0x1(%rcx),%edx
    7217:	3d ff ff ff 3f       	cmp    $0x3fffffff,%eax
    721c:	75 8b                	jne    71a9 <_ZN3std3sys4unix5locks12futex_rwlock6RwLock14read_contended17h793305c484369a20E+0x49>
    721e:	85 c9                	test   %ecx,%ecx
    7220:	89 d1                	mov    %edx,%ecx
    7222:	75 ec                	jne    7210 <_ZN3std3sys4unix5locks12futex_rwlock6RwLock14read_contended17h793305c484369a20E+0xb0>
    7224:	eb 83                	jmp    71a9 <_ZN3std3sys4unix5locks12futex_rwlock6RwLock14read_contended17h793305c484369a20E+0x49>
    7226:	48 83 c4 38          	add    $0x38,%rsp
    722a:	5b                   	pop    %rbx
    722b:	41 5e                	pop    %r14
    722d:	c3                   	retq   
    722e:	48 8d 05 a3 60 04 00 	lea    0x460a3(%rip),%rax        # 4d2d8 <__do_global_dtors_aux_fini_array_entry+0x1180>
    7235:	48 89 44 24 08       	mov    %rax,0x8(%rsp)
    723a:	48 c7 44 24 10 01 00 	movq   $0x1,0x10(%rsp)
    7241:	00 00 
    7243:	48 c7 44 24 18 00 00 	movq   $0x0,0x18(%rsp)
    724a:	00 00 
    724c:	48 8d 05 85 71 03 00 	lea    0x37185(%rip),%rax        # 3e3d8 <_fini+0x1cf8>
    7253:	48 89 44 24 28       	mov    %rax,0x28(%rsp)
    7258:	48 c7 44 24 30 00 00 	movq   $0x0,0x30(%rsp)
    725f:	00 00 
    7261:	48 8d 35 80 60 04 00 	lea    0x46080(%rip),%rsi        # 4d2e8 <__do_global_dtors_aux_fini_array_entry+0x1190>
    7268:	48 8d 7c 24 08       	lea    0x8(%rsp),%rdi
    726d:	ff 15 c5 77 04 00    	callq  *0x477c5(%rip)        # 4ea38 <_GLOBAL_OFFSET_TABLE_+0x148>
    7273:	0f 0b                	ud2    
    7275:	66 2e 0f 1f 84 00 00 	nopw   %cs:0x0(%rax,%rax,1)
    727c:	00 00 00 
    727f:	90                   	nop

0000000000007280 <_ZN3std3sys4unix5locks12futex_rwlock6RwLock22wake_writer_or_readers17hda20a7f05ac43639E>:
    7280:	53                   	push   %rbx
    7281:	f7 c6 ff ff ff 3f    	test   $0x3fffffff,%esi
    7287:	0f 85 ad 00 00 00    	jne    733a <_ZN3std3sys4unix5locks12futex_rwlock6RwLock22wake_writer_or_readers17hda20a7f05ac43639E+0xba>
    728d:	48 89 fb             	mov    %rdi,%rbx
    7290:	81 fe 00 00 00 80    	cmp    $0x80000000,%esi
    7296:	75 33                	jne    72cb <_ZN3std3sys4unix5locks12futex_rwlock6RwLock22wake_writer_or_readers17hda20a7f05ac43639E+0x4b>
    7298:	31 c9                	xor    %ecx,%ecx
    729a:	b8 00 00 00 80       	mov    $0x80000000,%eax
    729f:	f0 0f b1 0b          	lock cmpxchg %ecx,(%rbx)
    72a3:	75 24                	jne    72c9 <_ZN3std3sys4unix5locks12futex_rwlock6RwLock22wake_writer_or_readers17hda20a7f05ac43639E+0x49>
    72a5:	f0 83 43 04 01       	lock addl $0x1,0x4(%rbx)
    72aa:	48 83 c3 04          	add    $0x4,%rbx
    72ae:	bf ca 00 00 00       	mov    $0xca,%edi
    72b3:	48 89 de             	mov    %rbx,%rsi
    72b6:	ba 81 00 00 00       	mov    $0x81,%edx
    72bb:	b9 01 00 00 00       	mov    $0x1,%ecx
    72c0:	31 c0                	xor    %eax,%eax
    72c2:	5b                   	pop    %rbx
    72c3:	ff 25 b7 79 04 00    	jmpq   *0x479b7(%rip)        # 4ec80 <syscall@GLIBC_2.2.5>
    72c9:	89 c6                	mov    %eax,%esi
    72cb:	81 fe 00 00 00 c0    	cmp    $0xc0000000,%esi
    72d1:	74 30                	je     7303 <_ZN3std3sys4unix5locks12futex_rwlock6RwLock22wake_writer_or_readers17hda20a7f05ac43639E+0x83>
    72d3:	81 fe 00 00 00 40    	cmp    $0x40000000,%esi
    72d9:	75 5d                	jne    7338 <_ZN3std3sys4unix5locks12futex_rwlock6RwLock22wake_writer_or_readers17hda20a7f05ac43639E+0xb8>
    72db:	31 c9                	xor    %ecx,%ecx
    72dd:	b8 00 00 00 40       	mov    $0x40000000,%eax
    72e2:	f0 0f b1 0b          	lock cmpxchg %ecx,(%rbx)
    72e6:	75 50                	jne    7338 <_ZN3std3sys4unix5locks12futex_rwlock6RwLock22wake_writer_or_readers17hda20a7f05ac43639E+0xb8>
    72e8:	bf ca 00 00 00       	mov    $0xca,%edi
    72ed:	48 89 de             	mov    %rbx,%rsi
    72f0:	ba 81 00 00 00       	mov    $0x81,%edx
    72f5:	b9 ff ff ff 7f       	mov    $0x7fffffff,%ecx
    72fa:	31 c0                	xor    %eax,%eax
    72fc:	5b                   	pop    %rbx
    72fd:	ff 25 7d 79 04 00    	jmpq   *0x4797d(%rip)        # 4ec80 <syscall@GLIBC_2.2.5>
    7303:	b9 00 00 00 40       	mov    $0x40000000,%ecx
    7308:	b8 00 00 00 c0       	mov    $0xc0000000,%eax
    730d:	f0 0f b1 0b          	lock cmpxchg %ecx,(%rbx)
    7311:	75 25                	jne    7338 <_ZN3std3sys4unix5locks12futex_rwlock6RwLock22wake_writer_or_readers17hda20a7f05ac43639E+0xb8>
    7313:	48 8d 73 04          	lea    0x4(%rbx),%rsi
    7317:	f0 83 43 04 01       	lock addl $0x1,0x4(%rbx)
    731c:	bf ca 00 00 00       	mov    $0xca,%edi
    7321:	ba 81 00 00 00       	mov    $0x81,%edx
    7326:	b9 01 00 00 00       	mov    $0x1,%ecx
    732b:	31 c0                	xor    %eax,%eax
    732d:	ff 15 4d 79 04 00    	callq  *0x4794d(%rip)        # 4ec80 <syscall@GLIBC_2.2.5>
    7333:	48 85 c0             	test   %rax,%rax
    7336:	7e a3                	jle    72db <_ZN3std3sys4unix5locks12futex_rwlock6RwLock22wake_writer_or_readers17hda20a7f05ac43639E+0x5b>
    7338:	5b                   	pop    %rbx
    7339:	c3                   	retq   
    733a:	48 8d 3d 05 86 03 00 	lea    0x38605(%rip),%rdi        # 3f946 <str.5+0x13c6>
    7341:	48 8d 15 b8 5f 04 00 	lea    0x45fb8(%rip),%rdx        # 4d300 <__do_global_dtors_aux_fini_array_entry+0x11a8>
    7348:	be 24 00 00 00       	mov    $0x24,%esi
    734d:	ff 15 1d 7c 04 00    	callq  *0x47c1d(%rip)        # 4ef70 <_GLOBAL_OFFSET_TABLE_+0x680>
    7353:	0f 0b                	ud2    
    7355:	66 2e 0f 1f 84 00 00 	nopw   %cs:0x0(%rax,%rax,1)
    735c:	00 00 00 
    735f:	90                   	nop

0000000000007360 <_ZN5alloc7raw_vec19RawVec$LT$T$C$A$GT$7reserve21do_reserve_and_handle17hb8bb02506fbad1a1E>:
    7360:	41 56                	push   %r14
    7362:	53                   	push   %rbx
    7363:	48 83 ec 38          	sub    $0x38,%rsp
    7367:	48 01 d6             	add    %rdx,%rsi
    736a:	72 7c                	jb     73e8 <_ZN5alloc7raw_vec19RawVec$LT$T$C$A$GT$7reserve21do_reserve_and_handle17hb8bb02506fbad1a1E+0x88>
    736c:	49 89 fe             	mov    %rdi,%r14
    736f:	48 8b 47 08          	mov    0x8(%rdi),%rax
    7373:	48 8d 0c 00          	lea    (%rax,%rax,1),%rcx
    7377:	48 39 f1             	cmp    %rsi,%rcx
    737a:	48 0f 47 f1          	cmova  %rcx,%rsi
    737e:	48 83 fe 09          	cmp    $0x9,%rsi
    7382:	bb 08 00 00 00       	mov    $0x8,%ebx
    7387:	48 0f 43 de          	cmovae %rsi,%rbx
    738b:	48 85 c0             	test   %rax,%rax
    738e:	74 14                	je     73a4 <_ZN5alloc7raw_vec19RawVec$LT$T$C$A$GT$7reserve21do_reserve_and_handle17hb8bb02506fbad1a1E+0x44>
    7390:	49 8b 0e             	mov    (%r14),%rcx
    7393:	48 89 4c 24 20       	mov    %rcx,0x20(%rsp)
    7398:	48 89 44 24 28       	mov    %rax,0x28(%rsp)
    739d:	b8 01 00 00 00       	mov    $0x1,%eax
    73a2:	eb 02                	jmp    73a6 <_ZN5alloc7raw_vec19RawVec$LT$T$C$A$GT$7reserve21do_reserve_and_handle17hb8bb02506fbad1a1E+0x46>
    73a4:	31 c0                	xor    %eax,%eax
    73a6:	48 89 44 24 30       	mov    %rax,0x30(%rsp)
    73ab:	48 8d 7c 24 08       	lea    0x8(%rsp),%rdi
    73b0:	48 8d 4c 24 20       	lea    0x20(%rsp),%rcx
    73b5:	ba 01 00 00 00       	mov    $0x1,%edx
    73ba:	48 89 de             	mov    %rbx,%rsi
    73bd:	e8 6e 2e 02 00       	callq  2a230 <_ZN5alloc7raw_vec11finish_grow17h93337cbefc7cc6e5E>
    73c2:	48 83 7c 24 08 00    	cmpq   $0x0,0x8(%rsp)
    73c8:	75 14                	jne    73de <_ZN5alloc7raw_vec19RawVec$LT$T$C$A$GT$7reserve21do_reserve_and_handle17hb8bb02506fbad1a1E+0x7e>
    73ca:	48 8b 44 24 10       	mov    0x10(%rsp),%rax
    73cf:	49 89 06             	mov    %rax,(%r14)
    73d2:	49 89 5e 08          	mov    %rbx,0x8(%r14)
    73d6:	48 83 c4 38          	add    $0x38,%rsp
    73da:	5b                   	pop    %rbx
    73db:	41 5e                	pop    %r14
    73dd:	c3                   	retq   
    73de:	48 8b 74 24 18       	mov    0x18(%rsp),%rsi
    73e3:	48 85 f6             	test   %rsi,%rsi
    73e6:	75 08                	jne    73f0 <_ZN5alloc7raw_vec19RawVec$LT$T$C$A$GT$7reserve21do_reserve_and_handle17hb8bb02506fbad1a1E+0x90>
    73e8:	ff 15 72 7a 04 00    	callq  *0x47a72(%rip)        # 4ee60 <_GLOBAL_OFFSET_TABLE_+0x570>
    73ee:	0f 0b                	ud2    
    73f0:	48 8b 7c 24 10       	mov    0x10(%rsp),%rdi
    73f5:	ff 15 ad 77 04 00    	callq  *0x477ad(%rip)        # 4eba8 <_GLOBAL_OFFSET_TABLE_+0x2b8>
    73fb:	0f 0b                	ud2    
    73fd:	0f 1f 00             	nopl   (%rax)

0000000000007400 <_ZN4core9panicking13assert_failed17hfa21251227d64c39E>:
    7400:	48 83 ec 58          	sub    $0x58,%rsp
    7404:	48 89 7c 24 10       	mov    %rdi,0x10(%rsp)
    7409:	48 8d 05 d0 6f 03 00 	lea    0x36fd0(%rip),%rax        # 3e3e0 <_fini+0x1d00>
    7410:	48 89 44 24 18       	mov    %rax,0x18(%rsp)
    7415:	0f 10 06             	movups (%rsi),%xmm0
    7418:	0f 10 4e 10          	movups 0x10(%rsi),%xmm1
    741c:	0f 10 56 20          	movups 0x20(%rsi),%xmm2
    7420:	0f 29 54 24 40       	movaps %xmm2,0x40(%rsp)
    7425:	0f 29 4c 24 30       	movaps %xmm1,0x30(%rsp)
    742a:	0f 29 44 24 20       	movaps %xmm0,0x20(%rsp)
    742f:	48 8d 05 72 60 04 00 	lea    0x46072(%rip),%rax        # 4d4a8 <_ZN6object3elf12ELF_NOTE_GNU17hafccc7dd0edd6e89E+0xa0>
    7436:	48 89 04 24          	mov    %rax,(%rsp)
    743a:	48 8d 15 af 60 04 00 	lea    0x460af(%rip),%rdx        # 4d4f0 <_ZN6object3elf12ELF_NOTE_GNU17hafccc7dd0edd6e89E+0xe8>
    7441:	48 8d 74 24 10       	lea    0x10(%rsp),%rsi
    7446:	48 8d 4c 24 18       	lea    0x18(%rsp),%rcx
    744b:	4c 8d 4c 24 20       	lea    0x20(%rsp),%r9
    7450:	bf 01 00 00 00       	mov    $0x1,%edi
    7455:	49 89 d0             	mov    %rdx,%r8
    7458:	ff 15 ea 74 04 00    	callq  *0x474ea(%rip)        # 4e948 <_GLOBAL_OFFSET_TABLE_+0x58>
    745e:	0f 0b                	ud2    

0000000000007460 <_ZN5alloc7raw_vec19RawVec$LT$T$C$A$GT$7reserve21do_reserve_and_handle17hae777740de228444E>:
    7460:	41 56                	push   %r14
    7462:	53                   	push   %rbx
    7463:	48 83 ec 38          	sub    $0x38,%rsp
    7467:	48 01 d6             	add    %rdx,%rsi
    746a:	72 7c                	jb     74e8 <_ZN5alloc7raw_vec19RawVec$LT$T$C$A$GT$7reserve21do_reserve_and_handle17hae777740de228444E+0x88>
    746c:	49 89 fe             	mov    %rdi,%r14
    746f:	48 8b 47 08          	mov    0x8(%rdi),%rax
    7473:	48 8d 0c 00          	lea    (%rax,%rax,1),%rcx
    7477:	48 39 f1             	cmp    %rsi,%rcx
    747a:	48 0f 47 f1          	cmova  %rcx,%rsi
    747e:	48 83 fe 09          	cmp    $0x9,%rsi
    7482:	bb 08 00 00 00       	mov    $0x8,%ebx
    7487:	48 0f 43 de          	cmovae %rsi,%rbx
    748b:	48 85 c0             	test   %rax,%rax
    748e:	74 14                	je     74a4 <_ZN5alloc7raw_vec19RawVec$LT$T$C$A$GT$7reserve21do_reserve_and_handle17hae777740de228444E+0x44>
    7490:	49 8b 0e             	mov    (%r14),%rcx
    7493:	48 89 4c 24 20       	mov    %rcx,0x20(%rsp)
    7498:	48 89 44 24 28       	mov    %rax,0x28(%rsp)
    749d:	b8 01 00 00 00       	mov    $0x1,%eax
    74a2:	eb 02                	jmp    74a6 <_ZN5alloc7raw_vec19RawVec$LT$T$C$A$GT$7reserve21do_reserve_and_handle17hae777740de228444E+0x46>
    74a4:	31 c0                	xor    %eax,%eax
    74a6:	48 89 44 24 30       	mov    %rax,0x30(%rsp)
    74ab:	48 8d 7c 24 08       	lea    0x8(%rsp),%rdi
    74b0:	48 8d 4c 24 20       	lea    0x20(%rsp),%rcx
    74b5:	ba 01 00 00 00       	mov    $0x1,%edx
    74ba:	48 89 de             	mov    %rbx,%rsi
    74bd:	e8 4e ee 02 00       	callq  36310 <_ZN5alloc7raw_vec11finish_grow17h94e0de678fb06deaE>
    74c2:	48 83 7c 24 08 00    	cmpq   $0x0,0x8(%rsp)
    74c8:	75 14                	jne    74de <_ZN5alloc7raw_vec19RawVec$LT$T$C$A$GT$7reserve21do_reserve_and_handle17hae777740de228444E+0x7e>
    74ca:	48 8b 44 24 10       	mov    0x10(%rsp),%rax
    74cf:	49 89 06             	mov    %rax,(%r14)
    74d2:	49 89 5e 08          	mov    %rbx,0x8(%r14)
    74d6:	48 83 c4 38          	add    $0x38,%rsp
    74da:	5b                   	pop    %rbx
    74db:	41 5e                	pop    %r14
    74dd:	c3                   	retq   
    74de:	48 8b 74 24 18       	mov    0x18(%rsp),%rsi
    74e3:	48 85 f6             	test   %rsi,%rsi
    74e6:	75 08                	jne    74f0 <_ZN5alloc7raw_vec19RawVec$LT$T$C$A$GT$7reserve21do_reserve_and_handle17hae777740de228444E+0x90>
    74e8:	ff 15 72 79 04 00    	callq  *0x47972(%rip)        # 4ee60 <_GLOBAL_OFFSET_TABLE_+0x570>
    74ee:	0f 0b                	ud2    
    74f0:	48 8b 7c 24 10       	mov    0x10(%rsp),%rdi
    74f5:	ff 15 ad 76 04 00    	callq  *0x476ad(%rip)        # 4eba8 <_GLOBAL_OFFSET_TABLE_+0x2b8>
    74fb:	0f 0b                	ud2    
    74fd:	0f 1f 00             	nopl   (%rax)

0000000000007500 <_ZN5alloc5alloc18handle_alloc_error17hc8c4fc5c0faef121E>:
    7500:	50                   	push   %rax
    7501:	e8 fa ec 02 00       	callq  36200 <_ZN4core10intrinsics17const_eval_select17hd5f94343299c72e9E>
    7506:	0f 0b                	ud2    
    7508:	0f 1f 84 00 00 00 00 	nopl   0x0(%rax,%rax,1)
    750f:	00 

0000000000007510 <_ZN4core6option13expect_failed17hef4294f320c9cc36E>:
    7510:	50                   	push   %rax
    7511:	e8 aa fb 02 00       	callq  370c0 <_ZN4core9panicking9panic_str17h61705effd6c84979E>
    7516:	0f 0b                	ud2    
    7518:	0f 1f 84 00 00 00 00 	nopl   0x0(%rax,%rax,1)
    751f:	00 

0000000000007520 <_ZN4core9panicking5panic17hb3ad04c589a0e3c8E>:
    7520:	48 83 ec 48          	sub    $0x48,%rsp
    7524:	48 89 7c 24 08       	mov    %rdi,0x8(%rsp)
    7529:	48 89 74 24 10       	mov    %rsi,0x10(%rsp)
    752e:	48 8d 44 24 08       	lea    0x8(%rsp),%rax
    7533:	48 89 44 24 18       	mov    %rax,0x18(%rsp)
    7538:	48 c7 44 24 20 01 00 	movq   $0x1,0x20(%rsp)
    753f:	00 00 
    7541:	48 c7 44 24 28 00 00 	movq   $0x0,0x28(%rsp)
    7548:	00 00 
    754a:	48 8d 05 7f a1 03 00 	lea    0x3a17f(%rip),%rax        # 416d0 <_ZN4core7unicode12unicode_data11white_space17SHORT_OFFSET_RUNS17h5ad877437d43e13aE+0x2a0>
    7551:	48 89 44 24 38       	mov    %rax,0x38(%rsp)
    7556:	48 c7 44 24 40 00 00 	movq   $0x0,0x40(%rsp)
    755d:	00 00 
    755f:	48 8d 7c 24 18       	lea    0x18(%rsp),%rdi
    7564:	48 89 d6             	mov    %rdx,%rsi
    7567:	ff 15 cb 74 04 00    	callq  *0x474cb(%rip)        # 4ea38 <_GLOBAL_OFFSET_TABLE_+0x148>
    756d:	0f 0b                	ud2    
    756f:	90                   	nop

0000000000007570 <_ZN4core9panicking18panic_bounds_check17ha6e6615eae13afdcE>:
    7570:	48 83 ec 68          	sub    $0x68,%rsp
    7574:	48 89 7c 24 08       	mov    %rdi,0x8(%rsp)
    7579:	48 89 74 24 10       	mov    %rsi,0x10(%rsp)
    757e:	48 8d 44 24 10       	lea    0x10(%rsp),%rax
    7583:	48 89 44 24 18       	mov    %rax,0x18(%rsp)
    7588:	48 8d 05 01 49 03 00 	lea    0x34901(%rip),%rax        # 3be90 <_ZN4core3fmt3num3imp52_$LT$impl$u20$core..fmt..Display$u20$for$u20$u64$GT$3fmt17ha4fa307d47156a2bE>
    758f:	48 89 44 24 20       	mov    %rax,0x20(%rsp)
    7594:	48 8d 4c 24 08       	lea    0x8(%rsp),%rcx
    7599:	48 89 4c 24 28       	mov    %rcx,0x28(%rsp)
    759e:	48 89 44 24 30       	mov    %rax,0x30(%rsp)
    75a3:	48 8d 05 06 6c 04 00 	lea    0x46c06(%rip),%rax        # 4e1b0 <_ZN6object3elf12ELF_NOTE_GNU17hafccc7dd0edd6e89E+0xda8>
    75aa:	48 89 44 24 38       	mov    %rax,0x38(%rsp)
    75af:	48 c7 44 24 40 02 00 	movq   $0x2,0x40(%rsp)
    75b6:	00 00 
    75b8:	48 c7 44 24 48 00 00 	movq   $0x0,0x48(%rsp)
    75bf:	00 00 
    75c1:	48 8d 44 24 18       	lea    0x18(%rsp),%rax
    75c6:	48 89 44 24 58       	mov    %rax,0x58(%rsp)
    75cb:	48 c7 44 24 60 02 00 	movq   $0x2,0x60(%rsp)
    75d2:	00 00 
    75d4:	48 8d 7c 24 38       	lea    0x38(%rsp),%rdi
    75d9:	48 89 d6             	mov    %rdx,%rsi
    75dc:	ff 15 56 74 04 00    	callq  *0x47456(%rip)        # 4ea38 <_GLOBAL_OFFSET_TABLE_+0x148>
    75e2:	0f 0b                	ud2    
    75e4:	66 2e 0f 1f 84 00 00 	nopw   %cs:0x0(%rax,%rax,1)
    75eb:	00 00 00 
    75ee:	66 90                	xchg   %ax,%ax

00000000000075f0 <_ZN4core9panicking15panic_no_unwind17h9acf2a4612dd1861E>:
    75f0:	48 83 ec 58          	sub    $0x58,%rsp
    75f4:	48 8d 05 55 6c 04 00 	lea    0x46c55(%rip),%rax        # 4e250 <_ZN6object3elf12ELF_NOTE_GNU17hafccc7dd0edd6e89E+0xe48>
    75fb:	48 89 44 24 28       	mov    %rax,0x28(%rsp)
    7600:	48 c7 44 24 30 01 00 	movq   $0x1,0x30(%rsp)
    7607:	00 00 
    7609:	48 c7 44 24 38 00 00 	movq   $0x0,0x38(%rsp)
    7610:	00 00 
    7612:	48 8d 05 b7 a0 03 00 	lea    0x3a0b7(%rip),%rax        # 416d0 <_ZN4core7unicode12unicode_data11white_space17SHORT_OFFSET_RUNS17h5ad877437d43e13aE+0x2a0>
    7619:	48 89 44 24 48       	mov    %rax,0x48(%rsp)
    761e:	48 c7 44 24 50 00 00 	movq   $0x0,0x50(%rsp)
    7625:	00 00 
    7627:	48 89 04 24          	mov    %rax,(%rsp)
    762b:	48 8d 05 ce 6b 04 00 	lea    0x46bce(%rip),%rax        # 4e200 <_ZN6object3elf12ELF_NOTE_GNU17hafccc7dd0edd6e89E+0xdf8>
    7632:	48 89 44 24 08       	mov    %rax,0x8(%rsp)
    7637:	48 8d 44 24 28       	lea    0x28(%rsp),%rax
    763c:	48 89 44 24 10       	mov    %rax,0x10(%rsp)
    7641:	48 8d 05 18 6c 04 00 	lea    0x46c18(%rip),%rax        # 4e260 <_ZN6object3elf12ELF_NOTE_GNU17hafccc7dd0edd6e89E+0xe58>
    7648:	48 89 44 24 18       	mov    %rax,0x18(%rsp)
    764d:	c6 44 24 20 00       	movb   $0x0,0x20(%rsp)
    7652:	48 89 e7             	mov    %rsp,%rdi
    7655:	ff 15 c5 74 04 00    	callq  *0x474c5(%rip)        # 4eb20 <_GLOBAL_OFFSET_TABLE_+0x230>
    765b:	eb 06                	jmp    7663 <_ZN4core9panicking15panic_no_unwind17h9acf2a4612dd1861E+0x73>
    765d:	ff 15 1d 75 04 00    	callq  *0x4751d(%rip)        # 4eb80 <_GLOBAL_OFFSET_TABLE_+0x290>
    7663:	0f 0b                	ud2    
    7665:	66 2e 0f 1f 84 00 00 	nopw   %cs:0x0(%rax,%rax,1)
    766c:	00 00 00 
    766f:	90                   	nop

0000000000007670 <_ZN4core9panicking9panic_fmt17ha6dc7f2ab2479463E>:
    7670:	48 83 ec 28          	sub    $0x28,%rsp
    7674:	48 8d 05 55 a0 03 00 	lea    0x3a055(%rip),%rax        # 416d0 <_ZN4core7unicode12unicode_data11white_space17SHORT_OFFSET_RUNS17h5ad877437d43e13aE+0x2a0>
    767b:	48 89 04 24          	mov    %rax,(%rsp)
    767f:	48 8d 05 7a 6b 04 00 	lea    0x46b7a(%rip),%rax        # 4e200 <_ZN6object3elf12ELF_NOTE_GNU17hafccc7dd0edd6e89E+0xdf8>
    7686:	48 89 44 24 08       	mov    %rax,0x8(%rsp)
    768b:	48 89 7c 24 10       	mov    %rdi,0x10(%rsp)
    7690:	48 89 74 24 18       	mov    %rsi,0x18(%rsp)
    7695:	c6 44 24 20 01       	movb   $0x1,0x20(%rsp)
    769a:	48 89 e7             	mov    %rsp,%rdi
    769d:	ff 15 7d 74 04 00    	callq  *0x4747d(%rip)        # 4eb20 <_GLOBAL_OFFSET_TABLE_+0x230>
    76a3:	0f 0b                	ud2    
    76a5:	66 2e 0f 1f 84 00 00 	nopw   %cs:0x0(%rax,%rax,1)
    76ac:	00 00 00 
    76af:	90                   	nop

00000000000076b0 <_ZN4core6result13unwrap_failed17h42ad8e915aa0a906E>:
    76b0:	48 83 ec 78          	sub    $0x78,%rsp
    76b4:	48 89 7c 24 08       	mov    %rdi,0x8(%rsp)
    76b9:	48 89 74 24 10       	mov    %rsi,0x10(%rsp)
    76be:	48 89 54 24 18       	mov    %rdx,0x18(%rsp)
    76c3:	48 89 4c 24 20       	mov    %rcx,0x20(%rsp)
    76c8:	48 8d 44 24 08       	lea    0x8(%rsp),%rax
    76cd:	48 89 44 24 28       	mov    %rax,0x28(%rsp)
    76d2:	48 8d 05 c7 4a 03 00 	lea    0x34ac7(%rip),%rax        # 3c1a0 <_ZN44_$LT$$RF$T$u20$as$u20$core..fmt..Display$GT$3fmt17h165588b705369a23E>
    76d9:	48 89 44 24 30       	mov    %rax,0x30(%rsp)
    76de:	48 8d 44 24 18       	lea    0x18(%rsp),%rax
    76e3:	48 89 44 24 38       	mov    %rax,0x38(%rsp)
    76e8:	48 8d 05 01 4a 03 00 	lea    0x34a01(%rip),%rax        # 3c0f0 <_ZN42_$LT$$RF$T$u20$as$u20$core..fmt..Debug$GT$3fmt17hc061c3bccb905a03E>
    76ef:	48 89 44 24 40       	mov    %rax,0x40(%rsp)
    76f4:	48 8d 05 1d 6c 04 00 	lea    0x46c1d(%rip),%rax        # 4e318 <_ZN6object3elf12ELF_NOTE_GNU17hafccc7dd0edd6e89E+0xf10>
    76fb:	48 89 44 24 48       	mov    %rax,0x48(%rsp)
    7700:	48 c7 44 24 50 02 00 	movq   $0x2,0x50(%rsp)
    7707:	00 00 
    7709:	48 c7 44 24 58 00 00 	movq   $0x0,0x58(%rsp)
    7710:	00 00 
    7712:	48 8d 44 24 28       	lea    0x28(%rsp),%rax
    7717:	48 89 44 24 68       	mov    %rax,0x68(%rsp)
    771c:	48 c7 44 24 70 02 00 	movq   $0x2,0x70(%rsp)
    7723:	00 00 
    7725:	48 8d 7c 24 48       	lea    0x48(%rsp),%rdi
    772a:	4c 89 c6             	mov    %r8,%rsi
    772d:	ff 15 05 73 04 00    	callq  *0x47305(%rip)        # 4ea38 <_GLOBAL_OFFSET_TABLE_+0x148>
    7733:	0f 0b                	ud2    
    7735:	66 2e 0f 1f 84 00 00 	nopw   %cs:0x0(%rax,%rax,1)
    773c:	00 00 00 
    773f:	90                   	nop

0000000000007740 <_ZN4core5slice5index26slice_start_index_len_fail17h48cc10d8d86b5a1cE>:
    7740:	50                   	push   %rax
    7741:	e8 9a f5 02 00       	callq  36ce0 <_ZN4core10intrinsics17const_eval_select17h05923394f5e707b5E>
    7746:	0f 0b                	ud2    
    7748:	0f 1f 84 00 00 00 00 	nopl   0x0(%rax,%rax,1)
    774f:	00 

0000000000007750 <_ZN4core5slice5index24slice_end_index_len_fail17hfad232a7489883d0E>:
    7750:	50                   	push   %rax
    7751:	e8 ca f5 02 00       	callq  36d20 <_ZN4core10intrinsics17const_eval_select17hcbb057659907d124E>
    7756:	0f 0b                	ud2    
    7758:	0f 1f 84 00 00 00 00 	nopl   0x0(%rax,%rax,1)
    775f:	00 

0000000000007760 <_ZN4core5slice5index22slice_index_order_fail17h238eacd0ebc21db5E>:
    7760:	50                   	push   %rax
    7761:	e8 8a f5 02 00       	callq  36cf0 <_ZN4core10intrinsics17const_eval_select17h6ef5539e02f304baE>
    7766:	0f 0b                	ud2    
    7768:	0f 1f 84 00 00 00 00 	nopl   0x0(%rax,%rax,1)
    776f:	00 

0000000000007770 <_ZN4core5slice29_$LT$impl$u20$$u5b$T$u5d$$GT$15copy_from_slice17len_mismatch_fail17h28a2c9e6cf9810a7E>:
    7770:	48 83 ec 68          	sub    $0x68,%rsp
    7774:	48 89 7c 24 08       	mov    %rdi,0x8(%rsp)
    7779:	48 89 74 24 10       	mov    %rsi,0x10(%rsp)
    777e:	48 8d 44 24 10       	lea    0x10(%rsp),%rax
    7783:	48 89 44 24 18       	mov    %rax,0x18(%rsp)
    7788:	48 8d 05 01 47 03 00 	lea    0x34701(%rip),%rax        # 3be90 <_ZN4core3fmt3num3imp52_$LT$impl$u20$core..fmt..Display$u20$for$u20$u64$GT$3fmt17ha4fa307d47156a2bE>
    778f:	48 89 44 24 20       	mov    %rax,0x20(%rsp)
    7794:	48 8d 4c 24 08       	lea    0x8(%rsp),%rcx
    7799:	48 89 4c 24 28       	mov    %rcx,0x28(%rsp)
    779e:	48 89 44 24 30       	mov    %rax,0x30(%rsp)
    77a3:	48 8d 05 b6 6c 04 00 	lea    0x46cb6(%rip),%rax        # 4e460 <_ZN6object3elf12ELF_NOTE_GNU17hafccc7dd0edd6e89E+0x1058>
    77aa:	48 89 44 24 38       	mov    %rax,0x38(%rsp)
    77af:	48 c7 44 24 40 03 00 	movq   $0x3,0x40(%rsp)
    77b6:	00 00 
    77b8:	48 c7 44 24 48 00 00 	movq   $0x0,0x48(%rsp)
    77bf:	00 00 
    77c1:	48 8d 44 24 18       	lea    0x18(%rsp),%rax
    77c6:	48 89 44 24 58       	mov    %rax,0x58(%rsp)
    77cb:	48 c7 44 24 60 02 00 	movq   $0x2,0x60(%rsp)
    77d2:	00 00 
    77d4:	48 8d 7c 24 38       	lea    0x38(%rsp),%rdi
    77d9:	48 89 d6             	mov    %rdx,%rsi
    77dc:	ff 15 56 72 04 00    	callq  *0x47256(%rip)        # 4ea38 <_GLOBAL_OFFSET_TABLE_+0x148>
    77e2:	0f 0b                	ud2    
    77e4:	66 2e 0f 1f 84 00 00 	nopw   %cs:0x0(%rax,%rax,1)
    77eb:	00 00 00 
    77ee:	66 90                	xchg   %ax,%ax

00000000000077f0 <_ZN4core3str6traits23str_index_overflow_fail17h273733e4706d9836E>:
    77f0:	48 83 ec 38          	sub    $0x38,%rsp
    77f4:	48 89 fe             	mov    %rdi,%rsi
    77f7:	48 8d 05 92 6c 04 00 	lea    0x46c92(%rip),%rax        # 4e490 <_ZN6object3elf12ELF_NOTE_GNU17hafccc7dd0edd6e89E+0x1088>
    77fe:	48 89 44 24 08       	mov    %rax,0x8(%rsp)
    7803:	48 c7 44 24 10 01 00 	movq   $0x1,0x10(%rsp)
    780a:	00 00 
    780c:	48 c7 44 24 18 00 00 	movq   $0x0,0x18(%rsp)
    7813:	00 00 
    7815:	48 8d 05 b4 9e 03 00 	lea    0x39eb4(%rip),%rax        # 416d0 <_ZN4core7unicode12unicode_data11white_space17SHORT_OFFSET_RUNS17h5ad877437d43e13aE+0x2a0>
    781c:	48 89 44 24 28       	mov    %rax,0x28(%rsp)
    7821:	48 c7 44 24 30 00 00 	movq   $0x0,0x30(%rsp)
    7828:	00 00 
    782a:	48 8d 7c 24 08       	lea    0x8(%rsp),%rdi
    782f:	ff 15 03 72 04 00    	callq  *0x47203(%rip)        # 4ea38 <_GLOBAL_OFFSET_TABLE_+0x148>
    7835:	0f 0b                	ud2    
    7837:	66 0f 1f 84 00 00 00 	nopw   0x0(%rax,%rax,1)
    783e:	00 00 

0000000000007840 <_ZN4core3str16slice_error_fail17h3c539dd6e1fe73e2E>:
    7840:	48 83 ec 28          	sub    $0x28,%rsp
    7844:	48 89 7c 24 08       	mov    %rdi,0x8(%rsp)
    7849:	48 89 74 24 10       	mov    %rsi,0x10(%rsp)
    784e:	48 89 54 24 18       	mov    %rdx,0x18(%rsp)
    7853:	48 89 4c 24 20       	mov    %rcx,0x20(%rsp)
    7858:	48 8d 7c 24 08       	lea    0x8(%rsp),%rdi
    785d:	e8 9e f4 02 00       	callq  36d00 <_ZN4core10intrinsics17const_eval_select17ha592295ed12f7badE>
    7862:	0f 0b                	ud2    
    7864:	66 2e 0f 1f 84 00 00 	nopw   %cs:0x0(%rax,%rax,1)
    786b:	00 00 00 
    786e:	66 90                	xchg   %ax,%ax

0000000000007870 <_start>:
    7870:	31 ed                	xor    %ebp,%ebp
    7872:	49 89 d1             	mov    %rdx,%r9
    7875:	5e                   	pop    %rsi
    7876:	48 89 e2             	mov    %rsp,%rdx
    7879:	48 83 e4 f0          	and    $0xfffffffffffffff0,%rsp
    787d:	50                   	push   %rax
    787e:	54                   	push   %rsp
    787f:	4c 8d 05 2a 4e 03 00 	lea    0x34e2a(%rip),%r8        # 3c6b0 <__libc_csu_fini>
    7886:	48 8d 0d c3 4d 03 00 	lea    0x34dc3(%rip),%rcx        # 3c650 <__libc_csu_init>
    788d:	48 8d 3d 3c 01 00 00 	lea    0x13c(%rip),%rdi        # 79d0 <main>
    7894:	ff 15 4e 73 04 00    	callq  *0x4734e(%rip)        # 4ebe8 <__libc_start_main@GLIBC_2.2.5>
    789a:	f4                   	hlt    
    789b:	0f 1f 44 00 00       	nopl   0x0(%rax,%rax,1)

00000000000078a0 <deregister_tm_clones>:
    78a0:	48 8d 3d 91 77 04 00 	lea    0x47791(%rip),%rdi        # 4f038 <__TMC_END__>
    78a7:	48 8d 05 8a 77 04 00 	lea    0x4778a(%rip),%rax        # 4f038 <__TMC_END__>
    78ae:	48 39 f8             	cmp    %rdi,%rax
    78b1:	74 15                	je     78c8 <deregister_tm_clones+0x28>
    78b3:	48 8b 05 e6 70 04 00 	mov    0x470e6(%rip),%rax        # 4e9a0 <_ITM_deregisterTMCloneTable>
    78ba:	48 85 c0             	test   %rax,%rax
    78bd:	74 09                	je     78c8 <deregister_tm_clones+0x28>
    78bf:	ff e0                	jmpq   *%rax
    78c1:	0f 1f 80 00 00 00 00 	nopl   0x0(%rax)
    78c8:	c3                   	retq   
    78c9:	0f 1f 80 00 00 00 00 	nopl   0x0(%rax)

00000000000078d0 <register_tm_clones>:
    78d0:	48 8d 3d 61 77 04 00 	lea    0x47761(%rip),%rdi        # 4f038 <__TMC_END__>
    78d7:	48 8d 35 5a 77 04 00 	lea    0x4775a(%rip),%rsi        # 4f038 <__TMC_END__>
    78de:	48 29 fe             	sub    %rdi,%rsi
    78e1:	48 89 f0             	mov    %rsi,%rax
    78e4:	48 c1 ee 3f          	shr    $0x3f,%rsi
    78e8:	48 c1 f8 03          	sar    $0x3,%rax
    78ec:	48 01 c6             	add    %rax,%rsi
    78ef:	48 d1 fe             	sar    %rsi
    78f2:	74 14                	je     7908 <register_tm_clones+0x38>
    78f4:	48 8b 05 6d 76 04 00 	mov    0x4766d(%rip),%rax        # 4ef68 <_ITM_registerTMCloneTable>
    78fb:	48 85 c0             	test   %rax,%rax
    78fe:	74 08                	je     7908 <register_tm_clones+0x38>
    7900:	ff e0                	jmpq   *%rax
    7902:	66 0f 1f 44 00 00    	nopw   0x0(%rax,%rax,1)
    7908:	c3                   	retq   
    7909:	0f 1f 80 00 00 00 00 	nopl   0x0(%rax)

0000000000007910 <__do_global_dtors_aux>:
    7910:	80 3d 21 77 04 00 00 	cmpb   $0x0,0x47721(%rip)        # 4f038 <__TMC_END__>
    7917:	75 2f                	jne    7948 <__do_global_dtors_aux+0x38>
    7919:	55                   	push   %rbp
    791a:	48 83 3d 96 76 04 00 	cmpq   $0x0,0x47696(%rip)        # 4efb8 <__cxa_finalize@GLIBC_2.2.5>
    7921:	00 
    7922:	48 89 e5             	mov    %rsp,%rbp
    7925:	74 0c                	je     7933 <__do_global_dtors_aux+0x23>
    7927:	48 8b 3d d2 76 04 00 	mov    0x476d2(%rip),%rdi        # 4f000 <__dso_handle>
    792e:	e8 3d e7 ff ff       	callq  6070 <__cxa_finalize@plt>
    7933:	e8 68 ff ff ff       	callq  78a0 <deregister_tm_clones>
    7938:	c6 05 f9 76 04 00 01 	movb   $0x1,0x476f9(%rip)        # 4f038 <__TMC_END__>
    793f:	5d                   	pop    %rbp
    7940:	c3                   	retq   
    7941:	0f 1f 80 00 00 00 00 	nopl   0x0(%rax)
    7948:	c3                   	retq   
    7949:	0f 1f 80 00 00 00 00 	nopl   0x0(%rax)

0000000000007950 <frame_dummy>:
    7950:	e9 7b ff ff ff       	jmpq   78d0 <register_tm_clones>
    7955:	66 2e 0f 1f 84 00 00 	nopw   %cs:0x0(%rax,%rax,1)
    795c:	00 00 00 
    795f:	90                   	nop

0000000000007960 <_ZN5func24main17hcf580d1fa245aec1E>:
    7960:	48 83 ec 58          	sub    $0x58,%rsp
    7964:	8b 05 96 56 03 00    	mov    0x35696(%rip),%eax        # 3d000 <_fini+0x920>
    796a:	89 44 24 14          	mov    %eax,0x14(%rsp)
    796e:	48 8d 7c 24 14       	lea    0x14(%rsp),%rdi
    7973:	e8 78 00 00 00       	callq  79f0 <_ZN4core3fmt10ArgumentV111new_display17ha0dd811760bd54ffE>
    7978:	48 89 04 24          	mov    %rax,(%rsp)
    797c:	48 89 54 24 08       	mov    %rdx,0x8(%rsp)
    7981:	48 8b 44 24 08       	mov    0x8(%rsp),%rax
    7986:	48 8b 0c 24          	mov    (%rsp),%rcx
    798a:	48 89 4c 24 48       	mov    %rcx,0x48(%rsp)
    798f:	48 89 44 24 50       	mov    %rax,0x50(%rsp)
    7994:	48 8d 4c 24 48       	lea    0x48(%rsp),%rcx
    7999:	48 8d 7c 24 18       	lea    0x18(%rsp),%rdi
    799e:	48 8d 35 bb 47 04 00 	lea    0x447bb(%rip),%rsi        # 4c160 <__do_global_dtors_aux_fini_array_entry+0x8>
    79a5:	ba 02 00 00 00       	mov    $0x2,%edx
    79aa:	41 b8 01 00 00 00    	mov    $0x1,%r8d
    79b0:	e8 bb 00 00 00       	callq  7a70 <_ZN4core3fmt9Arguments6new_v117h82c82691eff97b5dE>
    79b5:	48 8d 7c 24 18       	lea    0x18(%rsp),%rdi
    79ba:	ff 15 a0 72 04 00    	callq  *0x472a0(%rip)        # 4ec60 <_GLOBAL_OFFSET_TABLE_+0x370>
    79c0:	48 83 c4 58          	add    $0x58,%rsp
    79c4:	c3                   	retq   
    79c5:	66 2e 0f 1f 84 00 00 	nopw   %cs:0x0(%rax,%rax,1)
    79cc:	00 00 00 
    79cf:	90                   	nop

00000000000079d0 <main>:
    79d0:	50                   	push   %rax
    79d1:	48 89 f2             	mov    %rsi,%rdx
    79d4:	48 63 f7             	movslq %edi,%rsi
    79d7:	48 8d 3d 82 ff ff ff 	lea    -0x7e(%rip),%rdi        # 7960 <_ZN5func24main17hcf580d1fa245aec1E>
    79de:	e8 4d 02 00 00       	callq  7c30 <_ZN3std2rt10lang_start17h406ae2227a175b40E>
    79e3:	59                   	pop    %rcx
    79e4:	c3                   	retq   
    79e5:	66 2e 0f 1f 84 00 00 	nopw   %cs:0x0(%rax,%rax,1)
    79ec:	00 00 00 
    79ef:	90                   	nop

00000000000079f0 <_ZN4core3fmt10ArgumentV111new_display17ha0dd811760bd54ffE>:
    79f0:	48 83 ec 18          	sub    $0x18,%rsp
    79f4:	48 8d 35 25 42 03 00 	lea    0x34225(%rip),%rsi        # 3bc20 <_ZN4core3fmt3num3imp52_$LT$impl$u20$core..fmt..Display$u20$for$u20$i32$GT$3fmt17hdc051e5fc3eec1a0E>
    79fb:	e8 20 00 00 00       	callq  7a20 <_ZN4core3fmt10ArgumentV13new17hd4287ab311d5f0daE>
    7a00:	48 89 44 24 08       	mov    %rax,0x8(%rsp)
    7a05:	48 89 54 24 10       	mov    %rdx,0x10(%rsp)
    7a0a:	48 8b 54 24 10       	mov    0x10(%rsp),%rdx
    7a0f:	48 8b 44 24 08       	mov    0x8(%rsp),%rax
    7a14:	48 83 c4 18          	add    $0x18,%rsp
    7a18:	c3                   	retq   
    7a19:	0f 1f 80 00 00 00 00 	nopl   0x0(%rax)

0000000000007a20 <_ZN4core3fmt10ArgumentV13new17hd4287ab311d5f0daE>:
    7a20:	48 83 ec 38          	sub    $0x38,%rsp
    7a24:	48 89 7c 24 08       	mov    %rdi,0x8(%rsp)
    7a29:	48 89 74 24 28       	mov    %rsi,0x28(%rsp)
    7a2e:	48 8b 44 24 28       	mov    0x28(%rsp),%rax
    7a33:	48 89 44 24 10       	mov    %rax,0x10(%rsp)
    7a38:	48 8b 44 24 08       	mov    0x8(%rsp),%rax
    7a3d:	48 89 44 24 30       	mov    %rax,0x30(%rsp)
    7a42:	48 8b 44 24 30       	mov    0x30(%rsp),%rax
    7a47:	48 89 04 24          	mov    %rax,(%rsp)
    7a4b:	48 8b 44 24 10       	mov    0x10(%rsp),%rax
    7a50:	48 8b 0c 24          	mov    (%rsp),%rcx
    7a54:	48 89 4c 24 18       	mov    %rcx,0x18(%rsp)
    7a59:	48 89 44 24 20       	mov    %rax,0x20(%rsp)
    7a5e:	48 8b 44 24 18       	mov    0x18(%rsp),%rax
    7a63:	48 8b 54 24 20       	mov    0x20(%rsp),%rdx
    7a68:	48 83 c4 38          	add    $0x38,%rsp
    7a6c:	c3                   	retq   
    7a6d:	0f 1f 00             	nopl   (%rax)

0000000000007a70 <_ZN4core3fmt9Arguments6new_v117h82c82691eff97b5dE>:
    7a70:	48 83 ec 78          	sub    $0x78,%rsp
    7a74:	4c 89 04 24          	mov    %r8,(%rsp)
    7a78:	48 89 4c 24 08       	mov    %rcx,0x8(%rsp)
    7a7d:	48 89 54 24 10       	mov    %rdx,0x10(%rsp)
    7a82:	48 89 74 24 18       	mov    %rsi,0x18(%rsp)
    7a87:	48 89 7c 24 20       	mov    %rdi,0x20(%rsp)
    7a8c:	48 89 7c 24 28       	mov    %rdi,0x28(%rsp)
    7a91:	4c 39 c2             	cmp    %r8,%rdx
    7a94:	72 1b                	jb     7ab1 <_ZN4core3fmt9Arguments6new_v117h82c82691eff97b5dE+0x41>
    7a96:	48 8b 44 24 10       	mov    0x10(%rsp),%rax
    7a9b:	48 8b 0c 24          	mov    (%rsp),%rcx
    7a9f:	48 83 c1 01          	add    $0x1,%rcx
    7aa3:	48 39 c8             	cmp    %rcx,%rax
    7aa6:	0f 97 c0             	seta   %al
    7aa9:	24 01                	and    $0x1,%al
    7aab:	88 44 24 37          	mov    %al,0x37(%rsp)
    7aaf:	eb 05                	jmp    7ab6 <_ZN4core3fmt9Arguments6new_v117h82c82691eff97b5dE+0x46>
    7ab1:	c6 44 24 37 01       	movb   $0x1,0x37(%rsp)
    7ab6:	f6 44 24 37 01       	testb  $0x1,0x37(%rsp)
    7abb:	75 4c                	jne    7b09 <_ZN4core3fmt9Arguments6new_v117h82c82691eff97b5dE+0x99>
    7abd:	48 8b 44 24 28       	mov    0x28(%rsp),%rax
    7ac2:	48 8b 4c 24 20       	mov    0x20(%rsp),%rcx
    7ac7:	48 8b 14 24          	mov    (%rsp),%rdx
    7acb:	48 8b 74 24 08       	mov    0x8(%rsp),%rsi
    7ad0:	48 8b 7c 24 10       	mov    0x10(%rsp),%rdi
    7ad5:	4c 8b 44 24 18       	mov    0x18(%rsp),%r8
    7ada:	48 c7 44 24 68 00 00 	movq   $0x0,0x68(%rsp)
    7ae1:	00 00 
    7ae3:	4c 89 01             	mov    %r8,(%rcx)
    7ae6:	48 89 79 08          	mov    %rdi,0x8(%rcx)
    7aea:	4c 8b 44 24 68       	mov    0x68(%rsp),%r8
    7aef:	48 8b 7c 24 70       	mov    0x70(%rsp),%rdi
    7af4:	4c 89 41 10          	mov    %r8,0x10(%rcx)
    7af8:	48 89 79 18          	mov    %rdi,0x18(%rcx)
    7afc:	48 89 71 20          	mov    %rsi,0x20(%rcx)
    7b00:	48 89 51 28          	mov    %rdx,0x28(%rcx)
    7b04:	48 83 c4 78          	add    $0x78,%rsp
    7b08:	c3                   	retq   
    7b09:	48 8d 7c 24 38       	lea    0x38(%rsp),%rdi
    7b0e:	48 8d 35 6b 46 04 00 	lea    0x4466b(%rip),%rsi        # 4c180 <__do_global_dtors_aux_fini_array_entry+0x28>
    7b15:	ba 01 00 00 00       	mov    $0x1,%edx
    7b1a:	48 8d 0d 0f 55 03 00 	lea    0x3550f(%rip),%rcx        # 3d030 <_fini+0x950>
    7b21:	31 c0                	xor    %eax,%eax
    7b23:	41 89 c0             	mov    %eax,%r8d
    7b26:	e8 45 ff ff ff       	callq  7a70 <_ZN4core3fmt9Arguments6new_v117h82c82691eff97b5dE>
    7b2b:	48 8d 35 5e 46 04 00 	lea    0x4465e(%rip),%rsi        # 4c190 <__do_global_dtors_aux_fini_array_entry+0x38>
    7b32:	48 8d 05 37 fb ff ff 	lea    -0x4c9(%rip),%rax        # 7670 <_ZN4core9panicking9panic_fmt17ha6dc7f2ab2479463E>
    7b39:	48 8d 7c 24 38       	lea    0x38(%rsp),%rdi
    7b3e:	ff d0                	callq  *%rax
    7b40:	0f 0b                	ud2    
    7b42:	66 2e 0f 1f 84 00 00 	nopw   %cs:0x0(%rax,%rax,1)
    7b49:	00 00 00 
    7b4c:	0f 1f 40 00          	nopl   0x0(%rax)

0000000000007b50 <_ZN4core4hint9black_box17h6c279864c4090f09E>:
    7b50:	c3                   	retq   
    7b51:	66 2e 0f 1f 84 00 00 	nopw   %cs:0x0(%rax,%rax,1)
    7b58:	00 00 00 
    7b5b:	0f 1f 44 00 00       	nopl   0x0(%rax,%rax,1)

0000000000007b60 <_ZN3std10sys_common9backtrace28__rust_begin_short_backtrace17h53de507e2f606a4fE>:
    7b60:	48 83 ec 18          	sub    $0x18,%rsp
    7b64:	e8 57 00 00 00       	callq  7bc0 <_ZN4core3ops8function6FnOnce9call_once17h2faf11e229715f0fE>
    7b69:	e8 e2 ff ff ff       	callq  7b50 <_ZN4core4hint9black_box17h6c279864c4090f09E>
    7b6e:	eb 12                	jmp    7b82 <_ZN3std10sys_common9backtrace28__rust_begin_short_backtrace17h53de507e2f606a4fE+0x22>
    7b70:	eb 15                	jmp    7b87 <_ZN3std10sys_common9backtrace28__rust_begin_short_backtrace17h53de507e2f606a4fE+0x27>
    7b72:	48 89 c1             	mov    %rax,%rcx
    7b75:	89 d0                	mov    %edx,%eax
    7b77:	48 89 4c 24 08       	mov    %rcx,0x8(%rsp)
    7b7c:	89 44 24 10          	mov    %eax,0x10(%rsp)
    7b80:	eb ee                	jmp    7b70 <_ZN3std10sys_common9backtrace28__rust_begin_short_backtrace17h53de507e2f606a4fE+0x10>
    7b82:	48 83 c4 18          	add    $0x18,%rsp
    7b86:	c3                   	retq   
    7b87:	48 8b 7c 24 08       	mov    0x8(%rsp),%rdi
    7b8c:	e8 cf e4 ff ff       	callq  6060 <_Unwind_Resume@plt>
    7b91:	0f 0b                	ud2    
    7b93:	66 2e 0f 1f 84 00 00 	nopw   %cs:0x0(%rax,%rax,1)
    7b9a:	00 00 00 
    7b9d:	0f 1f 00             	nopl   (%rax)

0000000000007ba0 <_ZN4core3ops8function6FnOnce40call_once$u7b$$u7b$vtable.shim$u7d$$u7d$17h49a74a427318565eE>:
    7ba0:	48 83 ec 18          	sub    $0x18,%rsp
    7ba4:	48 8b 3f             	mov    (%rdi),%rdi
    7ba7:	e8 24 00 00 00       	callq  7bd0 <_ZN4core3ops8function6FnOnce9call_once17hf44ca5b628eebd43E>
    7bac:	89 44 24 0c          	mov    %eax,0xc(%rsp)
    7bb0:	8b 44 24 0c          	mov    0xc(%rsp),%eax
    7bb4:	48 83 c4 18          	add    $0x18,%rsp
    7bb8:	c3                   	retq   
    7bb9:	0f 1f 80 00 00 00 00 	nopl   0x0(%rax)

0000000000007bc0 <_ZN4core3ops8function6FnOnce9call_once17h2faf11e229715f0fE>:
    7bc0:	50                   	push   %rax
    7bc1:	ff d7                	callq  *%rdi
    7bc3:	58                   	pop    %rax
    7bc4:	c3                   	retq   
    7bc5:	66 2e 0f 1f 84 00 00 	nopw   %cs:0x0(%rax,%rax,1)
    7bcc:	00 00 00 
    7bcf:	90                   	nop

0000000000007bd0 <_ZN4core3ops8function6FnOnce9call_once17hf44ca5b628eebd43E>:
    7bd0:	48 83 ec 28          	sub    $0x28,%rsp
    7bd4:	48 89 7c 24 08       	mov    %rdi,0x8(%rsp)
    7bd9:	48 8d 7c 24 08       	lea    0x8(%rsp),%rdi
    7bde:	e8 7d 00 00 00       	callq  7c60 <_ZN3std2rt10lang_start28_$u7b$$u7b$closure$u7d$$u7d$17h1690a723d2da3014E>
    7be3:	89 44 24 04          	mov    %eax,0x4(%rsp)
    7be7:	eb 12                	jmp    7bfb <_ZN4core3ops8function6FnOnce9call_once17hf44ca5b628eebd43E+0x2b>
    7be9:	eb 12                	jmp    7bfd <_ZN4core3ops8function6FnOnce9call_once17hf44ca5b628eebd43E+0x2d>
    7beb:	48 89 c1             	mov    %rax,%rcx
    7bee:	89 d0                	mov    %edx,%eax
    7bf0:	48 89 4c 24 18       	mov    %rcx,0x18(%rsp)
    7bf5:	89 44 24 20          	mov    %eax,0x20(%rsp)
    7bf9:	eb ee                	jmp    7be9 <_ZN4core3ops8function6FnOnce9call_once17hf44ca5b628eebd43E+0x19>
    7bfb:	eb 0c                	jmp    7c09 <_ZN4core3ops8function6FnOnce9call_once17hf44ca5b628eebd43E+0x39>
    7bfd:	48 8b 7c 24 18       	mov    0x18(%rsp),%rdi
    7c02:	e8 59 e4 ff ff       	callq  6060 <_Unwind_Resume@plt>
    7c07:	0f 0b                	ud2    
    7c09:	8b 44 24 04          	mov    0x4(%rsp),%eax
    7c0d:	48 83 c4 28          	add    $0x28,%rsp
    7c11:	c3                   	retq   
    7c12:	66 2e 0f 1f 84 00 00 	nopw   %cs:0x0(%rax,%rax,1)
    7c19:	00 00 00 
    7c1c:	0f 1f 40 00          	nopl   0x0(%rax)

0000000000007c20 <_ZN4core3ptr85drop_in_place$LT$std..rt..lang_start$LT$$LP$$RP$$GT$..$u7b$$u7b$closure$u7d$$u7d$$GT$17h328262beb85d7208E>:
    7c20:	c3                   	retq   
    7c21:	66 2e 0f 1f 84 00 00 	nopw   %cs:0x0(%rax,%rax,1)
    7c28:	00 00 00 
    7c2b:	0f 1f 44 00 00       	nopl   0x0(%rax,%rax,1)

0000000000007c30 <_ZN3std2rt10lang_start17h406ae2227a175b40E>:
    7c30:	48 83 ec 18          	sub    $0x18,%rsp
    7c34:	48 89 d1             	mov    %rdx,%rcx
    7c37:	48 89 f2             	mov    %rsi,%rdx
    7c3a:	48 89 7c 24 10       	mov    %rdi,0x10(%rsp)
    7c3f:	48 8d 7c 24 10       	lea    0x10(%rsp),%rdi
    7c44:	48 8d 35 5d 45 04 00 	lea    0x4455d(%rip),%rsi        # 4c1a8 <__do_global_dtors_aux_fini_array_entry+0x50>
    7c4b:	ff 15 8f 6f 04 00    	callq  *0x46f8f(%rip)        # 4ebe0 <_GLOBAL_OFFSET_TABLE_+0x2f0>
    7c51:	48 89 44 24 08       	mov    %rax,0x8(%rsp)
    7c56:	48 8b 44 24 08       	mov    0x8(%rsp),%rax
    7c5b:	48 83 c4 18          	add    $0x18,%rsp
    7c5f:	c3                   	retq   

0000000000007c60 <_ZN3std2rt10lang_start28_$u7b$$u7b$closure$u7d$$u7d$17h1690a723d2da3014E>:
    7c60:	50                   	push   %rax
    7c61:	48 8b 3f             	mov    (%rdi),%rdi
    7c64:	e8 f7 fe ff ff       	callq  7b60 <_ZN3std10sys_common9backtrace28__rust_begin_short_backtrace17h53de507e2f606a4fE>
    7c69:	e8 42 00 00 00       	callq  7cb0 <_ZN54_$LT$$LP$$RP$$u20$as$u20$std..process..Termination$GT$6report17h2e6de68e2259bed8E>
    7c6e:	88 44 24 07          	mov    %al,0x7(%rsp)
    7c72:	8a 44 24 07          	mov    0x7(%rsp),%al
    7c76:	0f b6 f8             	movzbl %al,%edi
    7c79:	e8 12 00 00 00       	callq  7c90 <_ZN3std7process8ExitCode6to_i3217he8cc3ec4fb88e72cE>
    7c7e:	89 04 24             	mov    %eax,(%rsp)
    7c81:	8b 04 24             	mov    (%rsp),%eax
    7c84:	59                   	pop    %rcx
    7c85:	c3                   	retq   
    7c86:	66 2e 0f 1f 84 00 00 	nopw   %cs:0x0(%rax,%rax,1)
    7c8d:	00 00 00 

0000000000007c90 <_ZN3std7process8ExitCode6to_i3217he8cc3ec4fb88e72cE>:
    7c90:	50                   	push   %rax
    7c91:	40 88 f8             	mov    %dil,%al
    7c94:	88 44 24 07          	mov    %al,0x7(%rsp)
    7c98:	48 8d 7c 24 07       	lea    0x7(%rsp),%rdi
    7c9d:	e8 1e 00 00 00       	callq  7cc0 <_ZN3std3sys4unix7process14process_common8ExitCode6as_i3217h1c12d78b566afd59E>
    7ca2:	89 04 24             	mov    %eax,(%rsp)
    7ca5:	8b 04 24             	mov    (%rsp),%eax
    7ca8:	59                   	pop    %rcx
    7ca9:	c3                   	retq   
    7caa:	66 0f 1f 44 00 00    	nopw   0x0(%rax,%rax,1)

0000000000007cb0 <_ZN54_$LT$$LP$$RP$$u20$as$u20$std..process..Termination$GT$6report17h2e6de68e2259bed8E>:
    7cb0:	31 c0                	xor    %eax,%eax
    7cb2:	c3                   	retq   
    7cb3:	66 2e 0f 1f 84 00 00 	nopw   %cs:0x0(%rax,%rax,1)
    7cba:	00 00 00 
    7cbd:	0f 1f 00             	nopl   (%rax)

0000000000007cc0 <_ZN3std3sys4unix7process14process_common8ExitCode6as_i3217h1c12d78b566afd59E>:
    7cc0:	0f b6 07             	movzbl (%rdi),%eax
    7cc3:	c3                   	retq   
    7cc4:	66 2e 0f 1f 84 00 00 	nopw   %cs:0x0(%rax,%rax,1)
    7ccb:	00 00 00 
    7cce:	66 90                	xchg   %ax,%ax

0000000000007cd0 <__rust_alloc>:
    7cd0:	e9 eb 6b 01 00       	jmpq   1e8c0 <__rdl_alloc>
    7cd5:	66 2e 0f 1f 84 00 00 	nopw   %cs:0x0(%rax,%rax,1)
    7cdc:	00 00 00 
    7cdf:	90                   	nop

0000000000007ce0 <__rust_dealloc>:
    7ce0:	e9 2b 6c 01 00       	jmpq   1e910 <__rdl_dealloc>
    7ce5:	66 2e 0f 1f 84 00 00 	nopw   %cs:0x0(%rax,%rax,1)
    7cec:	00 00 00 
    7cef:	90                   	nop

0000000000007cf0 <__rust_realloc>:
    7cf0:	e9 2b 6c 01 00       	jmpq   1e920 <__rdl_realloc>
    7cf5:	66 2e 0f 1f 84 00 00 	nopw   %cs:0x0(%rax,%rax,1)
    7cfc:	00 00 00 
    7cff:	90                   	nop

0000000000007d00 <__rust_alloc_zeroed>:
    7d00:	e9 bb 6c 01 00       	jmpq   1e9c0 <__rdl_alloc_zeroed>
    7d05:	66 2e 0f 1f 84 00 00 	nopw   %cs:0x0(%rax,%rax,1)
    7d0c:	00 00 00 
    7d0f:	90                   	nop

0000000000007d10 <__rust_alloc_error_handler>:
    7d10:	e9 eb e6 02 00       	jmpq   36400 <__rg_oom>
    7d15:	66 2e 0f 1f 84 00 00 	nopw   %cs:0x0(%rax,%rax,1)
    7d1c:	00 00 00 
    7d1f:	90                   	nop

0000000000007d20 <_ZN36_$LT$T$u20$as$u20$core..any..Any$GT$7type_id17h02e173d77d5e1058E>:
    7d20:	48 b8 14 d5 6f 6c 9b 	movabs $0x535ab89b6c6fd514,%rax
    7d27:	b8 5a 53 
    7d2a:	c3                   	retq   
    7d2b:	0f 1f 44 00 00       	nopl   0x0(%rax,%rax,1)

0000000000007d30 <_ZN36_$LT$T$u20$as$u20$core..any..Any$GT$7type_id17h27833430c0a604e4E>:
    7d30:	48 b8 2c 33 31 89 57 	movabs $0x85621c578931332c,%rax
    7d37:	1c 62 85 
    7d3a:	c3                   	retq   
    7d3b:	0f 1f 44 00 00       	nopl   0x0(%rax,%rax,1)

0000000000007d40 <_ZN36_$LT$T$u20$as$u20$core..any..Any$GT$7type_id17h735ce39236f66c95E>:
    7d40:	48 b8 0b f2 b9 22 c7 	movabs $0xb8ae3dc722b9f20b,%rax
    7d47:	3d ae b8 
    7d4a:	c3                   	retq   
    7d4b:	0f 1f 44 00 00       	nopl   0x0(%rax,%rax,1)

0000000000007d50 <_ZN42_$LT$$RF$T$u20$as$u20$core..fmt..Debug$GT$3fmt17h177544a0687accbcE>:
    7d50:	41 56                	push   %r14
    7d52:	53                   	push   %rbx
    7d53:	50                   	push   %rax
    7d54:	48 89 f3             	mov    %rsi,%rbx
    7d57:	4c 8b 37             	mov    (%rdi),%r14
    7d5a:	48 89 f7             	mov    %rsi,%rdi
    7d5d:	ff 15 dd 70 04 00    	callq  *0x470dd(%rip)        # 4ee40 <_GLOBAL_OFFSET_TABLE_+0x550>
    7d63:	84 c0                	test   %al,%al
    7d65:	74 13                	je     7d7a <_ZN42_$LT$$RF$T$u20$as$u20$core..fmt..Debug$GT$3fmt17h177544a0687accbcE+0x2a>
    7d67:	4c 89 f7             	mov    %r14,%rdi
    7d6a:	48 89 de             	mov    %rbx,%rsi
    7d6d:	48 83 c4 08          	add    $0x8,%rsp
    7d71:	5b                   	pop    %rbx
    7d72:	41 5e                	pop    %r14
    7d74:	ff 25 96 70 04 00    	jmpq   *0x47096(%rip)        # 4ee10 <_GLOBAL_OFFSET_TABLE_+0x520>
    7d7a:	48 89 df             	mov    %rbx,%rdi
    7d7d:	ff 15 5d 6d 04 00    	callq  *0x46d5d(%rip)        # 4eae0 <_GLOBAL_OFFSET_TABLE_+0x1f0>
    7d83:	4c 89 f7             	mov    %r14,%rdi
    7d86:	48 89 de             	mov    %rbx,%rsi
    7d89:	48 83 c4 08          	add    $0x8,%rsp
    7d8d:	84 c0                	test   %al,%al
    7d8f:	74 09                	je     7d9a <_ZN42_$LT$$RF$T$u20$as$u20$core..fmt..Debug$GT$3fmt17h177544a0687accbcE+0x4a>
    7d91:	5b                   	pop    %rbx
    7d92:	41 5e                	pop    %r14
    7d94:	ff 25 96 6c 04 00    	jmpq   *0x46c96(%rip)        # 4ea30 <_GLOBAL_OFFSET_TABLE_+0x140>
    7d9a:	5b                   	pop    %rbx
    7d9b:	41 5e                	pop    %r14
    7d9d:	ff 25 a5 71 04 00    	jmpq   *0x471a5(%rip)        # 4ef48 <_GLOBAL_OFFSET_TABLE_+0x658>
    7da3:	66 2e 0f 1f 84 00 00 	nopw   %cs:0x0(%rax,%rax,1)
    7daa:	00 00 00 
    7dad:	0f 1f 00             	nopl   (%rax)

0000000000007db0 <_ZN42_$LT$$RF$T$u20$as$u20$core..fmt..Debug$GT$3fmt17h216c9ad9b34e316bE>:
    7db0:	41 56                	push   %r14
    7db2:	53                   	push   %rbx
    7db3:	50                   	push   %rax
    7db4:	48 89 f3             	mov    %rsi,%rbx
    7db7:	4c 8b 37             	mov    (%rdi),%r14
    7dba:	48 89 f7             	mov    %rsi,%rdi
    7dbd:	ff 15 7d 70 04 00    	callq  *0x4707d(%rip)        # 4ee40 <_GLOBAL_OFFSET_TABLE_+0x550>
    7dc3:	84 c0                	test   %al,%al
    7dc5:	74 13                	je     7dda <_ZN42_$LT$$RF$T$u20$as$u20$core..fmt..Debug$GT$3fmt17h216c9ad9b34e316bE+0x2a>
    7dc7:	4c 89 f7             	mov    %r14,%rdi
    7dca:	48 89 de             	mov    %rbx,%rsi
    7dcd:	48 83 c4 08          	add    $0x8,%rsp
    7dd1:	5b                   	pop    %rbx
    7dd2:	41 5e                	pop    %r14
    7dd4:	ff 25 fe 70 04 00    	jmpq   *0x470fe(%rip)        # 4eed8 <_GLOBAL_OFFSET_TABLE_+0x5e8>
    7dda:	48 89 df             	mov    %rbx,%rdi
    7ddd:	ff 15 fd 6c 04 00    	callq  *0x46cfd(%rip)        # 4eae0 <_GLOBAL_OFFSET_TABLE_+0x1f0>
    7de3:	4c 89 f7             	mov    %r14,%rdi
    7de6:	48 89 de             	mov    %rbx,%rsi
    7de9:	48 83 c4 08          	add    $0x8,%rsp
    7ded:	84 c0                	test   %al,%al
    7def:	74 09                	je     7dfa <_ZN42_$LT$$RF$T$u20$as$u20$core..fmt..Debug$GT$3fmt17h216c9ad9b34e316bE+0x4a>
    7df1:	5b                   	pop    %rbx
    7df2:	41 5e                	pop    %r14
    7df4:	ff 25 46 6c 04 00    	jmpq   *0x46c46(%rip)        # 4ea40 <_GLOBAL_OFFSET_TABLE_+0x150>
    7dfa:	5b                   	pop    %rbx
    7dfb:	41 5e                	pop    %r14
    7dfd:	ff 25 55 71 04 00    	jmpq   *0x47155(%rip)        # 4ef58 <_GLOBAL_OFFSET_TABLE_+0x668>
    7e03:	66 2e 0f 1f 84 00 00 	nopw   %cs:0x0(%rax,%rax,1)
    7e0a:	00 00 00 
    7e0d:	0f 1f 00             	nopl   (%rax)

0000000000007e10 <_ZN42_$LT$$RF$T$u20$as$u20$core..fmt..Debug$GT$3fmt17h6ec7bdfb15fb5c20E>:
    7e10:	48 8b 07             	mov    (%rdi),%rax
    7e13:	48 8b 38             	mov    (%rax),%rdi
    7e16:	48 8b 40 08          	mov    0x8(%rax),%rax
    7e1a:	48 8b 40 18          	mov    0x18(%rax),%rax
    7e1e:	ff e0                	jmpq   *%rax

0000000000007e20 <_ZN42_$LT$$RF$T$u20$as$u20$core..fmt..Debug$GT$3fmt17h745a4cebfc774d02E>:
    7e20:	48 89 f2             	mov    %rsi,%rdx
    7e23:	48 8b 07             	mov    (%rdi),%rax
    7e26:	48 8b 77 08          	mov    0x8(%rdi),%rsi
    7e2a:	48 89 c7             	mov    %rax,%rdi
    7e2d:	ff 25 a5 6e 04 00    	jmpq   *0x46ea5(%rip)        # 4ecd8 <_GLOBAL_OFFSET_TABLE_+0x3e8>
    7e33:	66 2e 0f 1f 84 00 00 	nopw   %cs:0x0(%rax,%rax,1)
    7e3a:	00 00 00 
    7e3d:	0f 1f 00             	nopl   (%rax)

0000000000007e40 <_ZN42_$LT$$RF$T$u20$as$u20$core..fmt..Debug$GT$3fmt17h88210242900a5e92E>:
    7e40:	48 8b 3f             	mov    (%rdi),%rdi
    7e43:	ff 25 c7 6c 04 00    	jmpq   *0x46cc7(%rip)        # 4eb10 <_GLOBAL_OFFSET_TABLE_+0x220>
    7e49:	0f 1f 80 00 00 00 00 	nopl   0x0(%rax)

0000000000007e50 <_ZN42_$LT$$RF$T$u20$as$u20$core..fmt..Debug$GT$3fmt17hed64fd0ad9b759f8E>:
    7e50:	48 8b 07             	mov    (%rdi),%rax
    7e53:	48 8b 38             	mov    (%rax),%rdi
    7e56:	ff 25 cc 6d 04 00    	jmpq   *0x46dcc(%rip)        # 4ec28 <_GLOBAL_OFFSET_TABLE_+0x338>
    7e5c:	0f 1f 40 00          	nopl   0x0(%rax)

0000000000007e60 <_ZN42_$LT$$RF$T$u20$as$u20$core..fmt..Debug$GT$3fmt17hef5a63a6d3028affE>:
    7e60:	48 89 f7             	mov    %rsi,%rdi
    7e63:	48 8d 35 6e 65 03 00 	lea    0x3656e(%rip),%rsi        # 3e3d8 <_fini+0x1cf8>
    7e6a:	ba 02 00 00 00       	mov    $0x2,%edx
    7e6f:	ff 25 d3 6e 04 00    	jmpq   *0x46ed3(%rip)        # 4ed48 <_GLOBAL_OFFSET_TABLE_+0x458>
    7e75:	66 2e 0f 1f 84 00 00 	nopw   %cs:0x0(%rax,%rax,1)
    7e7c:	00 00 00 
    7e7f:	90                   	nop

0000000000007e80 <_ZN44_$LT$$RF$T$u20$as$u20$core..fmt..Display$GT$3fmt17hd4cefffae9fd2e3eE>:
    7e80:	48 8b 3f             	mov    (%rdi),%rdi
    7e83:	ff 25 27 6f 04 00    	jmpq   *0x46f27(%rip)        # 4edb0 <_GLOBAL_OFFSET_TABLE_+0x4c0>
    7e89:	0f 1f 80 00 00 00 00 	nopl   0x0(%rax)

0000000000007e90 <_ZN44_$LT$$RF$T$u20$as$u20$core..fmt..Display$GT$3fmt17hfd84495d33ef56f1E>:
    7e90:	48 89 f2             	mov    %rsi,%rdx
    7e93:	48 8b 07             	mov    (%rdi),%rax
    7e96:	48 8b 77 08          	mov    0x8(%rdi),%rsi
    7e9a:	48 89 c7             	mov    %rax,%rdi
    7e9d:	ff 25 f5 6a 04 00    	jmpq   *0x46af5(%rip)        # 4e998 <_GLOBAL_OFFSET_TABLE_+0xa8>
    7ea3:	66 2e 0f 1f 84 00 00 	nopw   %cs:0x0(%rax,%rax,1)
    7eaa:	00 00 00 
    7ead:	0f 1f 00             	nopl   (%rax)

0000000000007eb0 <_ZN4core3fmt3num50_$LT$impl$u20$core..fmt..Debug$u20$for$u20$i32$GT$3fmt17h316d504362d862eeE>:
    7eb0:	41 56                	push   %r14
    7eb2:	53                   	push   %rbx
    7eb3:	50                   	push   %rax
    7eb4:	48 89 f3             	mov    %rsi,%rbx
    7eb7:	49 89 fe             	mov    %rdi,%r14
    7eba:	48 89 f7             	mov    %rsi,%rdi
    7ebd:	ff 15 7d 6f 04 00    	callq  *0x46f7d(%rip)        # 4ee40 <_GLOBAL_OFFSET_TABLE_+0x550>
    7ec3:	84 c0                	test   %al,%al
    7ec5:	74 13                	je     7eda <_ZN4core3fmt3num50_$LT$impl$u20$core..fmt..Debug$u20$for$u20$i32$GT$3fmt17h316d504362d862eeE+0x2a>
    7ec7:	4c 89 f7             	mov    %r14,%rdi
    7eca:	48 89 de             	mov    %rbx,%rsi
    7ecd:	48 83 c4 08          	add    $0x8,%rsp
    7ed1:	5b                   	pop    %rbx
    7ed2:	41 5e                	pop    %r14
    7ed4:	ff 25 fe 6f 04 00    	jmpq   *0x46ffe(%rip)        # 4eed8 <_GLOBAL_OFFSET_TABLE_+0x5e8>
    7eda:	48 89 df             	mov    %rbx,%rdi
    7edd:	ff 15 fd 6b 04 00    	callq  *0x46bfd(%rip)        # 4eae0 <_GLOBAL_OFFSET_TABLE_+0x1f0>
    7ee3:	4c 89 f7             	mov    %r14,%rdi
    7ee6:	48 89 de             	mov    %rbx,%rsi
    7ee9:	48 83 c4 08          	add    $0x8,%rsp
    7eed:	84 c0                	test   %al,%al
    7eef:	74 09                	je     7efa <_ZN4core3fmt3num50_$LT$impl$u20$core..fmt..Debug$u20$for$u20$i32$GT$3fmt17h316d504362d862eeE+0x4a>
    7ef1:	5b                   	pop    %rbx
    7ef2:	41 5e                	pop    %r14
    7ef4:	ff 25 46 6b 04 00    	jmpq   *0x46b46(%rip)        # 4ea40 <_GLOBAL_OFFSET_TABLE_+0x150>
    7efa:	5b                   	pop    %rbx
    7efb:	41 5e                	pop    %r14
    7efd:	ff 25 55 70 04 00    	jmpq   *0x47055(%rip)        # 4ef58 <_GLOBAL_OFFSET_TABLE_+0x668>
    7f03:	66 2e 0f 1f 84 00 00 	nopw   %cs:0x0(%rax,%rax,1)
    7f0a:	00 00 00 
    7f0d:	0f 1f 00             	nopl   (%rax)

0000000000007f10 <_ZN4core3fmt5Write10write_char17h1045a803a8d92f9fE>:
    7f10:	41 57                	push   %r15
    7f12:	41 56                	push   %r14
    7f14:	53                   	push   %rbx
    7f15:	48 83 ec 10          	sub    $0x10,%rsp
    7f19:	49 89 fe             	mov    %rdi,%r14
    7f1c:	c7 44 24 0c 00 00 00 	movl   $0x0,0xc(%rsp)
    7f23:	00 
    7f24:	81 fe 80 00 00 00    	cmp    $0x80,%esi
    7f2a:	73 0f                	jae    7f3b <_ZN4core3fmt5Write10write_char17h1045a803a8d92f9fE+0x2b>
    7f2c:	40 88 74 24 0c       	mov    %sil,0xc(%rsp)
    7f31:	ba 01 00 00 00       	mov    $0x1,%edx
    7f36:	e9 90 00 00 00       	jmpq   7fcb <_ZN4core3fmt5Write10write_char17h1045a803a8d92f9fE+0xbb>
    7f3b:	89 f0                	mov    %esi,%eax
    7f3d:	81 fe 00 08 00 00    	cmp    $0x800,%esi
    7f43:	73 1d                	jae    7f62 <_ZN4core3fmt5Write10write_char17h1045a803a8d92f9fE+0x52>
    7f45:	c1 e8 06             	shr    $0x6,%eax
    7f48:	0c c0                	or     $0xc0,%al
    7f4a:	88 44 24 0c          	mov    %al,0xc(%rsp)
    7f4e:	40 80 e6 3f          	and    $0x3f,%sil
    7f52:	40 80 ce 80          	or     $0x80,%sil
    7f56:	40 88 74 24 0d       	mov    %sil,0xd(%rsp)
    7f5b:	ba 02 00 00 00       	mov    $0x2,%edx
    7f60:	eb 69                	jmp    7fcb <_ZN4core3fmt5Write10write_char17h1045a803a8d92f9fE+0xbb>
    7f62:	81 fe 00 00 01 00    	cmp    $0x10000,%esi
    7f68:	73 2a                	jae    7f94 <_ZN4core3fmt5Write10write_char17h1045a803a8d92f9fE+0x84>
    7f6a:	c1 e8 0c             	shr    $0xc,%eax
    7f6d:	0c e0                	or     $0xe0,%al
    7f6f:	88 44 24 0c          	mov    %al,0xc(%rsp)
    7f73:	89 f0                	mov    %esi,%eax
    7f75:	c1 e8 06             	shr    $0x6,%eax
    7f78:	24 3f                	and    $0x3f,%al
    7f7a:	0c 80                	or     $0x80,%al
    7f7c:	88 44 24 0d          	mov    %al,0xd(%rsp)
    7f80:	40 80 e6 3f          	and    $0x3f,%sil
    7f84:	40 80 ce 80          	or     $0x80,%sil
    7f88:	40 88 74 24 0e       	mov    %sil,0xe(%rsp)
    7f8d:	ba 03 00 00 00       	mov    $0x3,%edx
    7f92:	eb 37                	jmp    7fcb <_ZN4core3fmt5Write10write_char17h1045a803a8d92f9fE+0xbb>
    7f94:	c1 e8 12             	shr    $0x12,%eax
    7f97:	24 07                	and    $0x7,%al
    7f99:	0c f0                	or     $0xf0,%al
    7f9b:	88 44 24 0c          	mov    %al,0xc(%rsp)
    7f9f:	89 f0                	mov    %esi,%eax
    7fa1:	c1 e8 0c             	shr    $0xc,%eax
    7fa4:	24 3f                	and    $0x3f,%al
    7fa6:	0c 80                	or     $0x80,%al
    7fa8:	88 44 24 0d          	mov    %al,0xd(%rsp)
    7fac:	89 f0                	mov    %esi,%eax
    7fae:	c1 e8 06             	shr    $0x6,%eax
    7fb1:	24 3f                	and    $0x3f,%al
    7fb3:	0c 80                	or     $0x80,%al
    7fb5:	88 44 24 0e          	mov    %al,0xe(%rsp)
    7fb9:	40 80 e6 3f          	and    $0x3f,%sil
    7fbd:	40 80 ce 80          	or     $0x80,%sil
    7fc1:	40 88 74 24 0f       	mov    %sil,0xf(%rsp)
    7fc6:	ba 04 00 00 00       	mov    $0x4,%edx
    7fcb:	49 8b 3e             	mov    (%r14),%rdi
    7fce:	48 8d 74 24 0c       	lea    0xc(%rsp),%rsi
    7fd3:	ff 15 bf 6f 04 00    	callq  *0x46fbf(%rip)        # 4ef98 <_GLOBAL_OFFSET_TABLE_+0x6a8>
    7fd9:	48 89 c3             	mov    %rax,%rbx
    7fdc:	48 85 c0             	test   %rax,%rax
    7fdf:	74 16                	je     7ff7 <_ZN4core3fmt5Write10write_char17h1045a803a8d92f9fE+0xe7>
    7fe1:	4d 8d 7e 08          	lea    0x8(%r14),%r15
    7fe5:	49 83 7e 08 00       	cmpq   $0x0,0x8(%r14)
    7fea:	74 08                	je     7ff4 <_ZN4core3fmt5Write10write_char17h1045a803a8d92f9fE+0xe4>
    7fec:	4c 89 ff             	mov    %r15,%rdi
    7fef:	e8 bc 0f 00 00       	callq  8fb0 <_ZN4core3ptr42drop_in_place$LT$std..io..error..Error$GT$17h7e2bbef85ca14805E>
    7ff4:	49 89 1f             	mov    %rbx,(%r15)
    7ff7:	48 85 db             	test   %rbx,%rbx
    7ffa:	0f 95 c0             	setne  %al
    7ffd:	48 83 c4 10          	add    $0x10,%rsp
    8001:	5b                   	pop    %rbx
    8002:	41 5e                	pop    %r14
    8004:	41 5f                	pop    %r15
    8006:	c3                   	retq   
    8007:	49 89 1f             	mov    %rbx,(%r15)
    800a:	48 89 c7             	mov    %rax,%rdi
    800d:	e8 4e e0 ff ff       	callq  6060 <_Unwind_Resume@plt>
    8012:	0f 0b                	ud2    
    8014:	66 2e 0f 1f 84 00 00 	nopw   %cs:0x0(%rax,%rax,1)
    801b:	00 00 00 
    801e:	66 90                	xchg   %ax,%ax

0000000000008020 <_ZN4core3fmt5Write10write_char17h65de3181590da24dE>:
    8020:	41 57                	push   %r15
    8022:	41 56                	push   %r14
    8024:	53                   	push   %rbx
    8025:	48 83 ec 10          	sub    $0x10,%rsp
    8029:	c7 44 24 0c 00 00 00 	movl   $0x0,0xc(%rsp)
    8030:	00 
    8031:	81 fe 80 00 00 00    	cmp    $0x80,%esi
    8037:	73 10                	jae    8049 <_ZN4core3fmt5Write10write_char17h65de3181590da24dE+0x29>
    8039:	40 88 74 24 0c       	mov    %sil,0xc(%rsp)
    803e:	41 be 01 00 00 00    	mov    $0x1,%r14d
    8044:	e9 93 00 00 00       	jmpq   80dc <_ZN4core3fmt5Write10write_char17h65de3181590da24dE+0xbc>
    8049:	89 f0                	mov    %esi,%eax
    804b:	81 fe 00 08 00 00    	cmp    $0x800,%esi
    8051:	73 1e                	jae    8071 <_ZN4core3fmt5Write10write_char17h65de3181590da24dE+0x51>
    8053:	c1 e8 06             	shr    $0x6,%eax
    8056:	0c c0                	or     $0xc0,%al
    8058:	88 44 24 0c          	mov    %al,0xc(%rsp)
    805c:	40 80 e6 3f          	and    $0x3f,%sil
    8060:	40 80 ce 80          	or     $0x80,%sil
    8064:	40 88 74 24 0d       	mov    %sil,0xd(%rsp)
    8069:	41 be 02 00 00 00    	mov    $0x2,%r14d
    806f:	eb 6b                	jmp    80dc <_ZN4core3fmt5Write10write_char17h65de3181590da24dE+0xbc>
    8071:	81 fe 00 00 01 00    	cmp    $0x10000,%esi
    8077:	73 2b                	jae    80a4 <_ZN4core3fmt5Write10write_char17h65de3181590da24dE+0x84>
    8079:	c1 e8 0c             	shr    $0xc,%eax
    807c:	0c e0                	or     $0xe0,%al
    807e:	88 44 24 0c          	mov    %al,0xc(%rsp)
    8082:	89 f0                	mov    %esi,%eax
    8084:	c1 e8 06             	shr    $0x6,%eax
    8087:	24 3f                	and    $0x3f,%al
    8089:	0c 80                	or     $0x80,%al
    808b:	88 44 24 0d          	mov    %al,0xd(%rsp)
    808f:	40 80 e6 3f          	and    $0x3f,%sil
    8093:	40 80 ce 80          	or     $0x80,%sil
    8097:	40 88 74 24 0e       	mov    %sil,0xe(%rsp)
    809c:	41 be 03 00 00 00    	mov    $0x3,%r14d
    80a2:	eb 38                	jmp    80dc <_ZN4core3fmt5Write10write_char17h65de3181590da24dE+0xbc>
    80a4:	c1 e8 12             	shr    $0x12,%eax
    80a7:	24 07                	and    $0x7,%al
    80a9:	0c f0                	or     $0xf0,%al
    80ab:	88 44 24 0c          	mov    %al,0xc(%rsp)
    80af:	89 f0                	mov    %esi,%eax
    80b1:	c1 e8 0c             	shr    $0xc,%eax
    80b4:	24 3f                	and    $0x3f,%al
    80b6:	0c 80                	or     $0x80,%al
    80b8:	88 44 24 0d          	mov    %al,0xd(%rsp)
    80bc:	89 f0                	mov    %esi,%eax
    80be:	c1 e8 06             	shr    $0x6,%eax
    80c1:	24 3f                	and    $0x3f,%al
    80c3:	0c 80                	or     $0x80,%al
    80c5:	88 44 24 0e          	mov    %al,0xe(%rsp)
    80c9:	40 80 e6 3f          	and    $0x3f,%sil
    80cd:	40 80 ce 80          	or     $0x80,%sil
    80d1:	40 88 74 24 0f       	mov    %sil,0xf(%rsp)
    80d6:	41 be 04 00 00 00    	mov    $0x4,%r14d
    80dc:	4c 8b 3f             	mov    (%rdi),%r15
    80df:	49 8b 47 08          	mov    0x8(%r15),%rax
    80e3:	49 8b 5f 10          	mov    0x10(%r15),%rbx
    80e7:	48 29 d8             	sub    %rbx,%rax
    80ea:	4c 39 f0             	cmp    %r14,%rax
    80ed:	72 27                	jb     8116 <_ZN4core3fmt5Write10write_char17h65de3181590da24dE+0xf6>
    80ef:	49 8b 3f             	mov    (%r15),%rdi
    80f2:	48 01 df             	add    %rbx,%rdi
    80f5:	48 8d 74 24 0c       	lea    0xc(%rsp),%rsi
    80fa:	4c 89 f2             	mov    %r14,%rdx
    80fd:	ff 15 bd 6b 04 00    	callq  *0x46bbd(%rip)        # 4ecc0 <memcpy@GLIBC_2.14>
    8103:	4c 01 f3             	add    %r14,%rbx
    8106:	49 89 5f 10          	mov    %rbx,0x10(%r15)
    810a:	31 c0                	xor    %eax,%eax
    810c:	48 83 c4 10          	add    $0x10,%rsp
    8110:	5b                   	pop    %rbx
    8111:	41 5e                	pop    %r14
    8113:	41 5f                	pop    %r15
    8115:	c3                   	retq   
    8116:	4c 89 ff             	mov    %r15,%rdi
    8119:	48 89 de             	mov    %rbx,%rsi
    811c:	4c 89 f2             	mov    %r14,%rdx
    811f:	e8 0c e9 ff ff       	callq  6a30 <_ZN5alloc7raw_vec19RawVec$LT$T$C$A$GT$7reserve21do_reserve_and_handle17ha0473bb1c19af72cE>
    8124:	49 8b 5f 10          	mov    0x10(%r15),%rbx
    8128:	eb c5                	jmp    80ef <_ZN4core3fmt5Write10write_char17h65de3181590da24dE+0xcf>
    812a:	66 0f 1f 44 00 00    	nopw   0x0(%rax,%rax,1)

0000000000008130 <_ZN4core3fmt5Write10write_char17hfd639dd79694eb47E>:
    8130:	41 57                	push   %r15
    8132:	41 56                	push   %r14
    8134:	53                   	push   %rbx
    8135:	48 83 ec 10          	sub    $0x10,%rsp
    8139:	49 89 fe             	mov    %rdi,%r14
    813c:	c7 44 24 0c 00 00 00 	movl   $0x0,0xc(%rsp)
    8143:	00 
    8144:	81 fe 80 00 00 00    	cmp    $0x80,%esi
    814a:	73 0f                	jae    815b <_ZN4core3fmt5Write10write_char17hfd639dd79694eb47E+0x2b>
    814c:	40 88 74 24 0c       	mov    %sil,0xc(%rsp)
    8151:	ba 01 00 00 00       	mov    $0x1,%edx
    8156:	e9 90 00 00 00       	jmpq   81eb <_ZN4core3fmt5Write10write_char17hfd639dd79694eb47E+0xbb>
    815b:	89 f0                	mov    %esi,%eax
    815d:	81 fe 00 08 00 00    	cmp    $0x800,%esi
    8163:	73 1d                	jae    8182 <_ZN4core3fmt5Write10write_char17hfd639dd79694eb47E+0x52>
    8165:	c1 e8 06             	shr    $0x6,%eax
    8168:	0c c0                	or     $0xc0,%al
    816a:	88 44 24 0c          	mov    %al,0xc(%rsp)
    816e:	40 80 e6 3f          	and    $0x3f,%sil
    8172:	40 80 ce 80          	or     $0x80,%sil
    8176:	40 88 74 24 0d       	mov    %sil,0xd(%rsp)
    817b:	ba 02 00 00 00       	mov    $0x2,%edx
    8180:	eb 69                	jmp    81eb <_ZN4core3fmt5Write10write_char17hfd639dd79694eb47E+0xbb>
    8182:	81 fe 00 00 01 00    	cmp    $0x10000,%esi
    8188:	73 2a                	jae    81b4 <_ZN4core3fmt5Write10write_char17hfd639dd79694eb47E+0x84>
    818a:	c1 e8 0c             	shr    $0xc,%eax
    818d:	0c e0                	or     $0xe0,%al
    818f:	88 44 24 0c          	mov    %al,0xc(%rsp)
    8193:	89 f0                	mov    %esi,%eax
    8195:	c1 e8 06             	shr    $0x6,%eax
    8198:	24 3f                	and    $0x3f,%al
    819a:	0c 80                	or     $0x80,%al
    819c:	88 44 24 0d          	mov    %al,0xd(%rsp)
    81a0:	40 80 e6 3f          	and    $0x3f,%sil
    81a4:	40 80 ce 80          	or     $0x80,%sil
    81a8:	40 88 74 24 0e       	mov    %sil,0xe(%rsp)
    81ad:	ba 03 00 00 00       	mov    $0x3,%edx
    81b2:	eb 37                	jmp    81eb <_ZN4core3fmt5Write10write_char17hfd639dd79694eb47E+0xbb>
    81b4:	c1 e8 12             	shr    $0x12,%eax
    81b7:	24 07                	and    $0x7,%al
    81b9:	0c f0                	or     $0xf0,%al
    81bb:	88 44 24 0c          	mov    %al,0xc(%rsp)
    81bf:	89 f0                	mov    %esi,%eax
    81c1:	c1 e8 0c             	shr    $0xc,%eax
    81c4:	24 3f                	and    $0x3f,%al
    81c6:	0c 80                	or     $0x80,%al
    81c8:	88 44 24 0d          	mov    %al,0xd(%rsp)
    81cc:	89 f0                	mov    %esi,%eax
    81ce:	c1 e8 06             	shr    $0x6,%eax
    81d1:	24 3f                	and    $0x3f,%al
    81d3:	0c 80                	or     $0x80,%al
    81d5:	88 44 24 0e          	mov    %al,0xe(%rsp)
    81d9:	40 80 e6 3f          	and    $0x3f,%sil
    81dd:	40 80 ce 80          	or     $0x80,%sil
    81e1:	40 88 74 24 0f       	mov    %sil,0xf(%rsp)
    81e6:	ba 04 00 00 00       	mov    $0x4,%edx
    81eb:	49 8b 3e             	mov    (%r14),%rdi
    81ee:	48 8d 74 24 0c       	lea    0xc(%rsp),%rsi
    81f3:	e8 88 33 01 00       	callq  1b580 <_ZN3std2io5Write9write_all17hfd10585a414c79d5E>
    81f8:	48 89 c3             	mov    %rax,%rbx
    81fb:	48 85 c0             	test   %rax,%rax
    81fe:	74 16                	je     8216 <_ZN4core3fmt5Write10write_char17hfd639dd79694eb47E+0xe6>
    8200:	4d 8d 7e 08          	lea    0x8(%r14),%r15
    8204:	49 83 7e 08 00       	cmpq   $0x0,0x8(%r14)
    8209:	74 08                	je     8213 <_ZN4core3fmt5Write10write_char17hfd639dd79694eb47E+0xe3>
    820b:	4c 89 ff             	mov    %r15,%rdi
    820e:	e8 9d 0d 00 00       	callq  8fb0 <_ZN4core3ptr42drop_in_place$LT$std..io..error..Error$GT$17h7e2bbef85ca14805E>
    8213:	49 89 1f             	mov    %rbx,(%r15)
    8216:	48 85 db             	test   %rbx,%rbx
    8219:	0f 95 c0             	setne  %al
    821c:	48 83 c4 10          	add    $0x10,%rsp
    8220:	5b                   	pop    %rbx
    8221:	41 5e                	pop    %r14
    8223:	41 5f                	pop    %r15
    8225:	c3                   	retq   
    8226:	49 89 1f             	mov    %rbx,(%r15)
    8229:	48 89 c7             	mov    %rax,%rdi
    822c:	e8 2f de ff ff       	callq  6060 <_Unwind_Resume@plt>
    8231:	0f 0b                	ud2    
    8233:	66 2e 0f 1f 84 00 00 	nopw   %cs:0x0(%rax,%rax,1)
    823a:	00 00 00 
    823d:	0f 1f 00             	nopl   (%rax)

0000000000008240 <_ZN4core3fmt5Write9write_fmt17h4c86569eb5484a02E>:
    8240:	48 83 ec 48          	sub    $0x48,%rsp
    8244:	48 89 7c 24 08       	mov    %rdi,0x8(%rsp)
    8249:	0f 10 06             	movups (%rsi),%xmm0
    824c:	0f 10 4e 10          	movups 0x10(%rsi),%xmm1
    8250:	0f 10 56 20          	movups 0x20(%rsi),%xmm2
    8254:	0f 29 54 24 30       	movaps %xmm2,0x30(%rsp)
    8259:	0f 29 4c 24 20       	movaps %xmm1,0x20(%rsp)
    825e:	0f 29 44 24 10       	movaps %xmm0,0x10(%rsp)
    8263:	48 8d 35 6e 3f 04 00 	lea    0x43f6e(%rip),%rsi        # 4c1d8 <__do_global_dtors_aux_fini_array_entry+0x80>
    826a:	48 8d 7c 24 08       	lea    0x8(%rsp),%rdi
    826f:	48 8d 54 24 10       	lea    0x10(%rsp),%rdx
    8274:	ff 15 de 66 04 00    	callq  *0x466de(%rip)        # 4e958 <_GLOBAL_OFFSET_TABLE_+0x68>
    827a:	48 83 c4 48          	add    $0x48,%rsp
    827e:	c3                   	retq   
    827f:	90                   	nop

0000000000008280 <_ZN4core3fmt5Write9write_fmt17h59b1dedeb67c2422E>:
    8280:	48 83 ec 48          	sub    $0x48,%rsp
    8284:	48 89 7c 24 08       	mov    %rdi,0x8(%rsp)
    8289:	0f 10 06             	movups (%rsi),%xmm0
    828c:	0f 10 4e 10          	movups 0x10(%rsi),%xmm1
    8290:	0f 10 56 20          	movups 0x20(%rsi),%xmm2
    8294:	0f 29 54 24 30       	movaps %xmm2,0x30(%rsp)
    8299:	0f 29 4c 24 20       	movaps %xmm1,0x20(%rsp)
    829e:	0f 29 44 24 10       	movaps %xmm0,0x10(%rsp)
    82a3:	48 8d 35 5e 3f 04 00 	lea    0x43f5e(%rip),%rsi        # 4c208 <__do_global_dtors_aux_fini_array_entry+0xb0>
    82aa:	48 8d 7c 24 08       	lea    0x8(%rsp),%rdi
    82af:	48 8d 54 24 10       	lea    0x10(%rsp),%rdx
    82b4:	ff 15 9e 66 04 00    	callq  *0x4669e(%rip)        # 4e958 <_GLOBAL_OFFSET_TABLE_+0x68>
    82ba:	48 83 c4 48          	add    $0x48,%rsp
    82be:	c3                   	retq   
    82bf:	90                   	nop

00000000000082c0 <_ZN4core3fmt5Write9write_fmt17h72a66b01a7436f52E>:
    82c0:	48 83 ec 48          	sub    $0x48,%rsp
    82c4:	48 89 7c 24 08       	mov    %rdi,0x8(%rsp)
    82c9:	0f 10 06             	movups (%rsi),%xmm0
    82cc:	0f 10 4e 10          	movups 0x10(%rsi),%xmm1
    82d0:	0f 10 56 20          	movups 0x20(%rsi),%xmm2
    82d4:	0f 29 54 24 30       	movaps %xmm2,0x30(%rsp)
    82d9:	0f 29 4c 24 20       	movaps %xmm1,0x20(%rsp)
    82de:	0f 29 44 24 10       	movaps %xmm0,0x10(%rsp)
    82e3:	48 8d 35 4e 3f 04 00 	lea    0x43f4e(%rip),%rsi        # 4c238 <__do_global_dtors_aux_fini_array_entry+0xe0>
    82ea:	48 8d 7c 24 08       	lea    0x8(%rsp),%rdi
    82ef:	48 8d 54 24 10       	lea    0x10(%rsp),%rdx
    82f4:	ff 15 5e 66 04 00    	callq  *0x4665e(%rip)        # 4e958 <_GLOBAL_OFFSET_TABLE_+0x68>
    82fa:	48 83 c4 48          	add    $0x48,%rsp
    82fe:	c3                   	retq   
    82ff:	90                   	nop

0000000000008300 <_ZN4core3ops8function6FnOnce40call_once$u7b$$u7b$vtable.shim$u7d$$u7d$17h09d108832b819a74E>:
    8300:	55                   	push   %rbp
    8301:	53                   	push   %rbx
    8302:	48 83 ec 18          	sub    $0x18,%rsp
    8306:	48 89 f0             	mov    %rsi,%rax
    8309:	48 89 fb             	mov    %rdi,%rbx
    830c:	48 8b 4a 10          	mov    0x10(%rdx),%rcx
    8310:	48 89 4c 24 10       	mov    %rcx,0x10(%rsp)
    8315:	0f 10 02             	movups (%rdx),%xmm0
    8318:	0f 29 04 24          	movaps %xmm0,(%rsp)
    831c:	48 8b 0f             	mov    (%rdi),%rcx
    831f:	48 85 c9             	test   %rcx,%rcx
    8322:	48 0f 45 cf          	cmovne %rdi,%rcx
    8326:	8b 57 18             	mov    0x18(%rdi),%edx
    8329:	48 89 e6             	mov    %rsp,%rsi
    832c:	48 89 c7             	mov    %rax,%rdi
    832f:	e8 bc 5c 01 00       	callq  1dff0 <_ZN3std10sys_common9backtrace15output_filename17h6944bd623e6b6df7E>
    8334:	89 c5                	mov    %eax,%ebp
    8336:	48 8b 3b             	mov    (%rbx),%rdi
    8339:	48 85 ff             	test   %rdi,%rdi
    833c:	74 14                	je     8352 <_ZN4core3ops8function6FnOnce40call_once$u7b$$u7b$vtable.shim$u7d$$u7d$17h09d108832b819a74E+0x52>
    833e:	48 8b 73 08          	mov    0x8(%rbx),%rsi
    8342:	48 85 f6             	test   %rsi,%rsi
    8345:	74 0b                	je     8352 <_ZN4core3ops8function6FnOnce40call_once$u7b$$u7b$vtable.shim$u7d$$u7d$17h09d108832b819a74E+0x52>
    8347:	ba 01 00 00 00       	mov    $0x1,%edx
    834c:	ff 15 fe 67 04 00    	callq  *0x467fe(%rip)        # 4eb50 <_GLOBAL_OFFSET_TABLE_+0x260>
    8352:	89 e8                	mov    %ebp,%eax
    8354:	48 83 c4 18          	add    $0x18,%rsp
    8358:	5b                   	pop    %rbx
    8359:	5d                   	pop    %rbp
    835a:	c3                   	retq   
    835b:	48 89 c5             	mov    %rax,%rbp
    835e:	48 89 df             	mov    %rbx,%rdi
    8361:	e8 4a 16 00 00       	callq  99b0 <_ZN4core3ptr88drop_in_place$LT$std..sys_common..backtrace.._print_fmt..$u7b$$u7b$closure$u7d$$u7d$$GT$17h7fb4503c49c6cb4dE>
    8366:	48 89 ef             	mov    %rbp,%rdi
    8369:	e8 f2 dc ff ff       	callq  6060 <_Unwind_Resume@plt>
    836e:	0f 0b                	ud2    

0000000000008370 <_ZN4core3ops8function6FnOnce40call_once$u7b$$u7b$vtable.shim$u7d$$u7d$17h3f9426b923410724E>:
    8370:	53                   	push   %rbx
    8371:	48 8b 07             	mov    (%rdi),%rax
    8374:	48 8b 18             	mov    (%rax),%rbx
    8377:	48 c7 00 00 00 00 00 	movq   $0x0,(%rax)
    837e:	48 85 db             	test   %rbx,%rbx
    8381:	74 38                	je     83bb <_ZN4core3ops8function6FnOnce40call_once$u7b$$u7b$vtable.shim$u7d$$u7d$17h3f9426b923410724E+0x4b>
    8383:	bf 00 04 00 00       	mov    $0x400,%edi
    8388:	be 01 00 00 00       	mov    $0x1,%esi
    838d:	ff 15 55 67 04 00    	callq  *0x46755(%rip)        # 4eae8 <_GLOBAL_OFFSET_TABLE_+0x1f8>
    8393:	48 85 c0             	test   %rax,%rax
    8396:	74 3e                	je     83d6 <_ZN4core3ops8function6FnOnce40call_once$u7b$$u7b$vtable.shim$u7d$$u7d$17h3f9426b923410724E+0x66>
    8398:	0f 57 c0             	xorps  %xmm0,%xmm0
    839b:	0f 11 03             	movups %xmm0,(%rbx)
    839e:	48 89 43 10          	mov    %rax,0x10(%rbx)
    83a2:	0f 28 05 e7 4c 03 00 	movaps 0x34ce7(%rip),%xmm0        # 3d090 <_fini+0x9b0>
    83a9:	0f 11 43 18          	movups %xmm0,0x18(%rbx)
    83ad:	c6 43 28 00          	movb   $0x0,0x28(%rbx)
    83b1:	48 c7 43 30 00 00 00 	movq   $0x0,0x30(%rbx)
    83b8:	00 
    83b9:	5b                   	pop    %rbx
    83ba:	c3                   	retq   
    83bb:	48 8d 3d 97 63 03 00 	lea    0x36397(%rip),%rdi        # 3e759 <str.5+0x1d9>
    83c2:	48 8d 15 f7 48 04 00 	lea    0x448f7(%rip),%rdx        # 4ccc0 <__do_global_dtors_aux_fini_array_entry+0xb68>
    83c9:	be 2b 00 00 00       	mov    $0x2b,%esi
    83ce:	ff 15 9c 6b 04 00    	callq  *0x46b9c(%rip)        # 4ef70 <_GLOBAL_OFFSET_TABLE_+0x680>
    83d4:	0f 0b                	ud2    
    83d6:	bf 00 04 00 00       	mov    $0x400,%edi
    83db:	be 01 00 00 00       	mov    $0x1,%esi
    83e0:	ff 15 c2 67 04 00    	callq  *0x467c2(%rip)        # 4eba8 <_GLOBAL_OFFSET_TABLE_+0x2b8>
    83e6:	0f 0b                	ud2    
    83e8:	0f 1f 84 00 00 00 00 	nopl   0x0(%rax,%rax,1)
    83ef:	00 

00000000000083f0 <_ZN4core3ops8function6FnOnce40call_once$u7b$$u7b$vtable.shim$u7d$$u7d$17h7b547835d3699581E>:
    83f0:	50                   	push   %rax
    83f1:	48 8b 07             	mov    (%rdi),%rax
    83f4:	48 89 04 24          	mov    %rax,(%rsp)
    83f8:	48 89 e7             	mov    %rsp,%rdi
    83fb:	e8 90 51 01 00       	callq  1d590 <_ZN3std4sync4once4Once9call_once28_$u7b$$u7b$closure$u7d$$u7d$17hb4a2cf0817823e24E>
    8400:	58                   	pop    %rax
    8401:	c3                   	retq   
    8402:	66 2e 0f 1f 84 00 00 	nopw   %cs:0x0(%rax,%rax,1)
    8409:	00 00 00 
    840c:	0f 1f 40 00          	nopl   0x0(%rax)

0000000000008410 <_ZN4core3ops8function6FnOnce40call_once$u7b$$u7b$vtable.shim$u7d$$u7d$17ha3ec853df1ac9c53E>:
    8410:	e9 1b 59 01 00       	jmpq   1dd30 <_ZN3std10sys_common9backtrace10_print_fmt28_$u7b$$u7b$closure$u7d$$u7d$28_$u7b$$u7b$closure$u7d$$u7d$17he919cf4553cb4969E>
    8415:	66 2e 0f 1f 84 00 00 	nopw   %cs:0x0(%rax,%rax,1)
    841c:	00 00 00 
    841f:	90                   	nop

0000000000008420 <_ZN4core3ops8function6FnOnce40call_once$u7b$$u7b$vtable.shim$u7d$$u7d$17hd3dc2a25ae6429d0E>:
    8420:	e9 cb 57 01 00       	jmpq   1dbf0 <_ZN3std10sys_common9backtrace10_print_fmt28_$u7b$$u7b$closure$u7d$$u7d$17he1f2da7055bc0971E>
    8425:	66 2e 0f 1f 84 00 00 	nopw   %cs:0x0(%rax,%rax,1)
    842c:	00 00 00 
    842f:	90                   	nop

0000000000008430 <_ZN4core3ops8function6FnOnce9call_once17hae940607547f9e88E>:
    8430:	50                   	push   %rax
    8431:	e8 8a 10 01 00       	callq  194c0 <_ZN3std2rt19lang_start_internal28_$u7b$$u7b$closure$u7d$$u7d$17h2c35bf4b7399f6fcE>
    8436:	0f 0b                	ud2    
    8438:	0f 1f 84 00 00 00 00 	nopl   0x0(%rax,%rax,1)
    843f:	00 

0000000000008440 <_ZN4core3ptr100drop_in_place$LT$$RF$mut$u20$std..io..Write..write_fmt..Adapter$LT$alloc..vec..Vec$LT$u8$GT$$GT$$GT$17h70ba685da0d311b0E>:
    8440:	c3                   	retq   
    8441:	66 2e 0f 1f 84 00 00 	nopw   %cs:0x0(%rax,%rax,1)
    8448:	00 00 00 
    844b:	0f 1f 44 00 00       	nopl   0x0(%rax,%rax,1)

0000000000008450 <_ZN4core3ptr101drop_in_place$LT$alloc..sync..Arc$LT$std..sync..mutex..Mutex$LT$alloc..vec..Vec$LT$u8$GT$$GT$$GT$$GT$17h1d4120b51f327fccE>:
    8450:	48 8b 07             	mov    (%rdi),%rax
    8453:	f0 48 83 28 01       	lock subq $0x1,(%rax)
    8458:	75 08                	jne    8462 <_ZN4core3ptr101drop_in_place$LT$alloc..sync..Arc$LT$std..sync..mutex..Mutex$LT$alloc..vec..Vec$LT$u8$GT$$GT$$GT$$GT$17h1d4120b51f327fccE+0x12>
    845a:	48 8b 3f             	mov    (%rdi),%rdi
    845d:	e9 6e 2f 00 00       	jmpq   b3d0 <_ZN5alloc4sync12Arc$LT$T$GT$9drop_slow17h1bef9b28bfbc7a29E>
    8462:	c3                   	retq   
    8463:	66 2e 0f 1f 84 00 00 	nopw   %cs:0x0(%rax,%rax,1)
    846a:	00 00 00 
    846d:	0f 1f 00             	nopl   (%rax)

0000000000008470 <_ZN4core3ptr105drop_in_place$LT$core..result..Result$LT$alloc..ffi..c_str..CString$C$alloc..ffi..c_str..NulError$GT$$GT$17h888b9ab1aa968e65E>:
    8470:	48 83 3f 00          	cmpq   $0x0,(%rdi)
    8474:	74 18                	je     848e <_ZN4core3ptr105drop_in_place$LT$core..result..Result$LT$alloc..ffi..c_str..CString$C$alloc..ffi..c_str..NulError$GT$$GT$17h888b9ab1aa968e65E+0x1e>
    8476:	48 8b 77 18          	mov    0x18(%rdi),%rsi
    847a:	48 85 f6             	test   %rsi,%rsi
    847d:	74 2e                	je     84ad <_ZN4core3ptr105drop_in_place$LT$core..result..Result$LT$alloc..ffi..c_str..CString$C$alloc..ffi..c_str..NulError$GT$$GT$17h888b9ab1aa968e65E+0x3d>
    847f:	48 8b 7f 10          	mov    0x10(%rdi),%rdi
    8483:	ba 01 00 00 00       	mov    $0x1,%edx
    8488:	ff 25 c2 66 04 00    	jmpq   *0x466c2(%rip)        # 4eb50 <_GLOBAL_OFFSET_TABLE_+0x260>
    848e:	48 8b 47 08          	mov    0x8(%rdi),%rax
    8492:	c6 00 00             	movb   $0x0,(%rax)
    8495:	48 8b 77 10          	mov    0x10(%rdi),%rsi
    8499:	48 85 f6             	test   %rsi,%rsi
    849c:	74 0f                	je     84ad <_ZN4core3ptr105drop_in_place$LT$core..result..Result$LT$alloc..ffi..c_str..CString$C$alloc..ffi..c_str..NulError$GT$$GT$17h888b9ab1aa968e65E+0x3d>
    849e:	48 8b 7f 08          	mov    0x8(%rdi),%rdi
    84a2:	ba 01 00 00 00       	mov    $0x1,%edx
    84a7:	ff 25 a3 66 04 00    	jmpq   *0x466a3(%rip)        # 4eb50 <_GLOBAL_OFFSET_TABLE_+0x260>
    84ad:	c3                   	retq   
    84ae:	66 90                	xchg   %ax,%ax

00000000000084b0 <_ZN4core3ptr107drop_in_place$LT$alloc..sync..Arc$LT$core..mem..maybe_uninit..MaybeUninit$LT$std..thread..Inner$GT$$GT$$GT$17h353c977ac1ac9906E>:
    84b0:	48 8b 07             	mov    (%rdi),%rax
    84b3:	f0 48 83 28 01       	lock subq $0x1,(%rax)
    84b8:	75 08                	jne    84c2 <_ZN4core3ptr107drop_in_place$LT$alloc..sync..Arc$LT$core..mem..maybe_uninit..MaybeUninit$LT$std..thread..Inner$GT$$GT$$GT$17h353c977ac1ac9906E+0x12>
    84ba:	48 8b 3f             	mov    (%rdi),%rdi
    84bd:	e9 ee 2f 00 00       	jmpq   b4b0 <_ZN5alloc4sync12Arc$LT$T$GT$9drop_slow17he9951e4edc6ad778E>
    84c2:	c3                   	retq   
    84c3:	66 2e 0f 1f 84 00 00 	nopw   %cs:0x0(%rax,%rax,1)
    84ca:	00 00 00 
    84cd:	0f 1f 00             	nopl   (%rax)

00000000000084d0 <_ZN4core3ptr108drop_in_place$LT$alloc..collections..btree..map..BTreeMap$LT$u64$C$gimli..read..abbrev..Abbreviation$GT$$GT$17hc8628c28d3789790E>:
    84d0:	41 57                	push   %r15
    84d2:	41 56                	push   %r14
    84d4:	41 54                	push   %r12
    84d6:	53                   	push   %rbx
    84d7:	48 83 ec 68          	sub    $0x68,%rsp
    84db:	48 8b 4f 08          	mov    0x8(%rdi),%rcx
    84df:	48 85 c9             	test   %rcx,%rcx
    84e2:	74 28                	je     850c <_ZN4core3ptr108drop_in_place$LT$alloc..collections..btree..map..BTreeMap$LT$u64$C$gimli..read..abbrev..Abbreviation$GT$$GT$17hc8628c28d3789790E+0x3c>
    84e4:	48 8b 17             	mov    (%rdi),%rdx
    84e7:	48 8b 47 10          	mov    0x10(%rdi),%rax
    84eb:	48 c7 44 24 20 00 00 	movq   $0x0,0x20(%rsp)
    84f2:	00 00 
    84f4:	48 89 54 24 28       	mov    %rdx,0x28(%rsp)
    84f9:	48 89 4c 24 30       	mov    %rcx,0x30(%rsp)
    84fe:	48 89 54 24 48       	mov    %rdx,0x48(%rsp)
    8503:	48 89 4c 24 50       	mov    %rcx,0x50(%rsp)
    8508:	31 c9                	xor    %ecx,%ecx
    850a:	eb 10                	jmp    851c <_ZN4core3ptr108drop_in_place$LT$alloc..collections..btree..map..BTreeMap$LT$u64$C$gimli..read..abbrev..Abbreviation$GT$$GT$17hc8628c28d3789790E+0x4c>
    850c:	48 c7 44 24 20 02 00 	movq   $0x2,0x20(%rsp)
    8513:	00 00 
    8515:	b9 02 00 00 00       	mov    $0x2,%ecx
    851a:	31 c0                	xor    %eax,%eax
    851c:	48 89 4c 24 40       	mov    %rcx,0x40(%rsp)
    8521:	48 89 44 24 60       	mov    %rax,0x60(%rsp)
    8526:	48 8d 7c 24 08       	lea    0x8(%rsp),%rdi
    852b:	48 8d 74 24 20       	lea    0x20(%rsp),%rsi
    8530:	e8 eb 2a 00 00       	callq  b020 <_ZN5alloc11collections5btree3map25IntoIter$LT$K$C$V$C$A$GT$10dying_next17hd35ae4ebb6b23d47E>
    8535:	48 8b 4c 24 10       	mov    0x10(%rsp),%rcx
    853a:	48 85 c9             	test   %rcx,%rcx
    853d:	74 68                	je     85a7 <_ZN4core3ptr108drop_in_place$LT$alloc..collections..btree..map..BTreeMap$LT$u64$C$gimli..read..abbrev..Abbreviation$GT$$GT$17hc8628c28d3789790E+0xd7>
    853f:	4c 8d 74 24 08       	lea    0x8(%rsp),%r14
    8544:	48 8d 5c 24 20       	lea    0x20(%rsp),%rbx
    8549:	41 bf 10 00 00 00    	mov    $0x10,%r15d
    854f:	4c 8d 25 8a f7 ff ff 	lea    -0x876(%rip),%r12        # 7ce0 <__rust_dealloc>
    8556:	eb 1d                	jmp    8575 <_ZN4core3ptr108drop_in_place$LT$alloc..collections..btree..map..BTreeMap$LT$u64$C$gimli..read..abbrev..Abbreviation$GT$$GT$17hc8628c28d3789790E+0xa5>
    8558:	0f 1f 84 00 00 00 00 	nopl   0x0(%rax,%rax,1)
    855f:	00 
    8560:	4c 89 f7             	mov    %r14,%rdi
    8563:	48 89 de             	mov    %rbx,%rsi
    8566:	e8 b5 2a 00 00       	callq  b020 <_ZN5alloc11collections5btree3map25IntoIter$LT$K$C$V$C$A$GT$10dying_next17hd35ae4ebb6b23d47E>
    856b:	48 8b 4c 24 10       	mov    0x10(%rsp),%rcx
    8570:	48 85 c9             	test   %rcx,%rcx
    8573:	74 32                	je     85a7 <_ZN4core3ptr108drop_in_place$LT$alloc..collections..btree..map..BTreeMap$LT$u64$C$gimli..read..abbrev..Abbreviation$GT$$GT$17hc8628c28d3789790E+0xd7>
    8575:	48 6b 74 24 18 70    	imul   $0x70,0x18(%rsp),%rsi
    857b:	48 83 7c 31 68 00    	cmpq   $0x0,0x68(%rcx,%rsi,1)
    8581:	74 dd                	je     8560 <_ZN4core3ptr108drop_in_place$LT$alloc..collections..btree..map..BTreeMap$LT$u64$C$gimli..read..abbrev..Abbreviation$GT$$GT$17hc8628c28d3789790E+0x90>
    8583:	48 8b 44 31 78       	mov    0x78(%rcx,%rsi,1),%rax
    8588:	48 85 c0             	test   %rax,%rax
    858b:	74 d3                	je     8560 <_ZN4core3ptr108drop_in_place$LT$alloc..collections..btree..map..BTreeMap$LT$u64$C$gimli..read..abbrev..Abbreviation$GT$$GT$17hc8628c28d3789790E+0x90>
    858d:	49 f7 e7             	mul    %r15
    8590:	48 85 c0             	test   %rax,%rax
    8593:	74 cb                	je     8560 <_ZN4core3ptr108drop_in_place$LT$alloc..collections..btree..map..BTreeMap$LT$u64$C$gimli..read..abbrev..Abbreviation$GT$$GT$17hc8628c28d3789790E+0x90>
    8595:	48 8b 7c 31 70       	mov    0x70(%rcx,%rsi,1),%rdi
    859a:	ba 08 00 00 00       	mov    $0x8,%edx
    859f:	48 89 c6             	mov    %rax,%rsi
    85a2:	41 ff d4             	callq  *%r12
    85a5:	eb b9                	jmp    8560 <_ZN4core3ptr108drop_in_place$LT$alloc..collections..btree..map..BTreeMap$LT$u64$C$gimli..read..abbrev..Abbreviation$GT$$GT$17hc8628c28d3789790E+0x90>
    85a7:	48 83 c4 68          	add    $0x68,%rsp
    85ab:	5b                   	pop    %rbx
    85ac:	41 5c                	pop    %r12
    85ae:	41 5e                	pop    %r14
    85b0:	41 5f                	pop    %r15
    85b2:	c3                   	retq   
    85b3:	66 2e 0f 1f 84 00 00 	nopw   %cs:0x0(%rax,%rax,1)
    85ba:	00 00 00 
    85bd:	0f 1f 00             	nopl   (%rax)

00000000000085c0 <_ZN4core3ptr109drop_in_place$LT$core..slice..sort..CopyOnDrop$LT$std..backtrace_rs..symbolize..gimli..elf..ParsedSym$GT$$GT$17hafdf5d32327427f3E>:
    85c0:	48 8b 07             	mov    (%rdi),%rax
    85c3:	48 8b 4f 08          	mov    0x8(%rdi),%rcx
    85c7:	48 8b 50 10          	mov    0x10(%rax),%rdx
    85cb:	48 89 51 10          	mov    %rdx,0x10(%rcx)
    85cf:	0f 10 00             	movups (%rax),%xmm0
    85d2:	0f 11 01             	movups %xmm0,(%rcx)
    85d5:	c3                   	retq   
    85d6:	66 2e 0f 1f 84 00 00 	nopw   %cs:0x0(%rax,%rax,1)
    85dd:	00 00 00 

00000000000085e0 <_ZN4core3ptr115drop_in_place$LT$core..cell..RefMut$LT$core..option..Option$LT$std..sys_common..thread_info..ThreadInfo$GT$$GT$$GT$17h477f129f815b739dE>:
    85e0:	48 83 07 01          	addq   $0x1,(%rdi)
    85e4:	c3                   	retq   
    85e5:	66 2e 0f 1f 84 00 00 	nopw   %cs:0x0(%rax,%rax,1)
    85ec:	00 00 00 
    85ef:	90                   	nop

00000000000085f0 <_ZN4core3ptr118drop_in_place$LT$alloc..vec..Vec$LT$$LP$gimli..common..DebugInfoOffset$C$gimli..common..DebugArangesOffset$RP$$GT$$GT$17ha721a6efac72dabaE>:
    85f0:	48 8b 47 08          	mov    0x8(%rdi),%rax
    85f4:	48 85 c0             	test   %rax,%rax
    85f7:	74 1e                	je     8617 <_ZN4core3ptr118drop_in_place$LT$alloc..vec..Vec$LT$$LP$gimli..common..DebugInfoOffset$C$gimli..common..DebugArangesOffset$RP$$GT$$GT$17ha721a6efac72dabaE+0x27>
    85f9:	b9 10 00 00 00       	mov    $0x10,%ecx
    85fe:	48 f7 e1             	mul    %rcx
    8601:	48 85 c0             	test   %rax,%rax
    8604:	74 11                	je     8617 <_ZN4core3ptr118drop_in_place$LT$alloc..vec..Vec$LT$$LP$gimli..common..DebugInfoOffset$C$gimli..common..DebugArangesOffset$RP$$GT$$GT$17ha721a6efac72dabaE+0x27>
    8606:	48 8b 3f             	mov    (%rdi),%rdi
    8609:	ba 08 00 00 00       	mov    $0x8,%edx
    860e:	48 89 c6             	mov    %rax,%rsi
    8611:	ff 25 39 65 04 00    	jmpq   *0x46539(%rip)        # 4eb50 <_GLOBAL_OFFSET_TABLE_+0x260>
    8617:	c3                   	retq   
    8618:	0f 1f 84 00 00 00 00 	nopl   0x0(%rax,%rax,1)
    861f:	00 

0000000000008620 <_ZN4core3ptr119drop_in_place$LT$addr2line..lazy..LazyCell$LT$core..result..Result$LT$addr2line..Lines$C$gimli..read..Error$GT$$GT$$GT$17he2018cc1262a6f0aE>:
    8620:	83 3f 02             	cmpl   $0x2,(%rdi)
    8623:	75 01                	jne    8626 <_ZN4core3ptr119drop_in_place$LT$addr2line..lazy..LazyCell$LT$core..result..Result$LT$addr2line..Lines$C$gimli..read..Error$GT$$GT$$GT$17he2018cc1262a6f0aE+0x6>
    8625:	c3                   	retq   
    8626:	e9 65 12 00 00       	jmpq   9890 <_ZN4core3ptr86drop_in_place$LT$core..result..Result$LT$addr2line..Lines$C$gimli..read..Error$GT$$GT$17h3c3f0d778a5c6dbeE>
    862b:	0f 1f 44 00 00       	nopl   0x0(%rax,%rax,1)

0000000000008630 <_ZN4core3ptr123drop_in_place$LT$addr2line..ResUnit$LT$gimli..read..endian_slice..EndianSlice$LT$gimli..endianity..LittleEndian$GT$$GT$$GT$17hc8a86f70807b29c2E>:
    8630:	41 56                	push   %r14
    8632:	53                   	push   %rbx
    8633:	50                   	push   %rax
    8634:	48 89 fb             	mov    %rdi,%rbx
    8637:	48 83 c7 08          	add    $0x8,%rdi
    863b:	e8 80 01 00 00       	callq  87c0 <_ZN4core3ptr137drop_in_place$LT$gimli..read..dwarf..Unit$LT$gimli..read..endian_slice..EndianSlice$LT$gimli..endianity..LittleEndian$GT$$C$usize$GT$$GT$17hf23dfa54092820c5E>
    8640:	83 bb d8 01 00 00 02 	cmpl   $0x2,0x1d8(%rbx)
    8647:	74 0c                	je     8655 <_ZN4core3ptr123drop_in_place$LT$addr2line..ResUnit$LT$gimli..read..endian_slice..EndianSlice$LT$gimli..endianity..LittleEndian$GT$$GT$$GT$17hc8a86f70807b29c2E+0x25>
    8649:	48 8d bb d8 01 00 00 	lea    0x1d8(%rbx),%rdi
    8650:	e8 3b 12 00 00       	callq  9890 <_ZN4core3ptr86drop_in_place$LT$core..result..Result$LT$addr2line..Lines$C$gimli..read..Error$GT$$GT$17h3c3f0d778a5c6dbeE>
    8655:	83 bb 00 02 00 00 02 	cmpl   $0x2,0x200(%rbx)
    865c:	75 08                	jne    8666 <_ZN4core3ptr123drop_in_place$LT$addr2line..ResUnit$LT$gimli..read..endian_slice..EndianSlice$LT$gimli..endianity..LittleEndian$GT$$GT$$GT$17hc8a86f70807b29c2E+0x36>
    865e:	48 83 c4 08          	add    $0x8,%rsp
    8662:	5b                   	pop    %rbx
    8663:	41 5e                	pop    %r14
    8665:	c3                   	retq   
    8666:	48 81 c3 00 02 00 00 	add    $0x200,%rbx
    866d:	48 89 df             	mov    %rbx,%rdi
    8670:	48 83 c4 08          	add    $0x8,%rsp
    8674:	5b                   	pop    %rbx
    8675:	41 5e                	pop    %r14
    8677:	e9 24 06 00 00       	jmpq   8ca0 <_ZN4core3ptr184drop_in_place$LT$core..result..Result$LT$addr2line..function..Functions$LT$gimli..read..endian_slice..EndianSlice$LT$gimli..endianity..LittleEndian$GT$$GT$$C$gimli..read..Error$GT$$GT$17hd984704b696005d0E>
    867c:	49 89 c6             	mov    %rax,%r14
    867f:	48 8d bb d8 01 00 00 	lea    0x1d8(%rbx),%rdi
    8686:	e8 95 ff ff ff       	callq  8620 <_ZN4core3ptr119drop_in_place$LT$addr2line..lazy..LazyCell$LT$core..result..Result$LT$addr2line..Lines$C$gimli..read..Error$GT$$GT$$GT$17he2018cc1262a6f0aE>
    868b:	48 81 c3 00 02 00 00 	add    $0x200,%rbx
    8692:	48 89 df             	mov    %rbx,%rdi
    8695:	e8 e6 06 00 00       	callq  8d80 <_ZN4core3ptr217drop_in_place$LT$addr2line..lazy..LazyCell$LT$core..result..Result$LT$addr2line..function..Functions$LT$gimli..read..endian_slice..EndianSlice$LT$gimli..endianity..LittleEndian$GT$$GT$$C$gimli..read..Error$GT$$GT$$GT$17hf824f7e0230b6d10E>
    869a:	4c 89 f7             	mov    %r14,%rdi
    869d:	e8 be d9 ff ff       	callq  6060 <_Unwind_Resume@plt>
    86a2:	0f 0b                	ud2    
    86a4:	66 2e 0f 1f 84 00 00 	nopw   %cs:0x0(%rax,%rax,1)
    86ab:	00 00 00 
    86ae:	66 90                	xchg   %ax,%ax

00000000000086b0 <_ZN4core3ptr124drop_in_place$LT$addr2line..ResDwarf$LT$gimli..read..endian_slice..EndianSlice$LT$gimli..endianity..LittleEndian$GT$$GT$$GT$17hc81e4f8e856a6197E>:
    86b0:	41 56                	push   %r14
    86b2:	53                   	push   %rbx
    86b3:	50                   	push   %rax
    86b4:	48 89 fb             	mov    %rdi,%rbx
    86b7:	48 8b 47 08          	mov    0x8(%rdi),%rax
    86bb:	48 85 c0             	test   %rax,%rax
    86be:	74 1e                	je     86de <_ZN4core3ptr124drop_in_place$LT$addr2line..ResDwarf$LT$gimli..read..endian_slice..EndianSlice$LT$gimli..endianity..LittleEndian$GT$$GT$$GT$17hc81e4f8e856a6197E+0x2e>
    86c0:	b9 20 00 00 00       	mov    $0x20,%ecx
    86c5:	48 f7 e1             	mul    %rcx
    86c8:	48 85 c0             	test   %rax,%rax
    86cb:	74 11                	je     86de <_ZN4core3ptr124drop_in_place$LT$addr2line..ResDwarf$LT$gimli..read..endian_slice..EndianSlice$LT$gimli..endianity..LittleEndian$GT$$GT$$GT$17hc81e4f8e856a6197E+0x2e>
    86cd:	48 8b 3b             	mov    (%rbx),%rdi
    86d0:	ba 08 00 00 00       	mov    $0x8,%edx
    86d5:	48 89 c6             	mov    %rax,%rsi
    86d8:	ff 15 72 64 04 00    	callq  *0x46472(%rip)        # 4eb50 <_GLOBAL_OFFSET_TABLE_+0x260>
    86de:	48 8d 7b 18          	lea    0x18(%rbx),%rdi
    86e2:	e8 c9 01 00 00       	callq  88b0 <_ZN4core3ptr146drop_in_place$LT$alloc..vec..Vec$LT$addr2line..ResUnit$LT$gimli..read..endian_slice..EndianSlice$LT$gimli..endianity..LittleEndian$GT$$GT$$GT$$GT$17h1ac602eb691e704bE>
    86e7:	48 8b 43 30          	mov    0x30(%rbx),%rax
    86eb:	f0 48 83 28 01       	lock subq $0x1,(%rax)
    86f0:	75 09                	jne    86fb <_ZN4core3ptr124drop_in_place$LT$addr2line..ResDwarf$LT$gimli..read..endian_slice..EndianSlice$LT$gimli..endianity..LittleEndian$GT$$GT$$GT$17hc81e4f8e856a6197E+0x4b>
    86f2:	48 8d 7b 30          	lea    0x30(%rbx),%rdi
    86f6:	e8 65 2d 00 00       	callq  b460 <_ZN5alloc4sync12Arc$LT$T$GT$9drop_slow17ha29dc78b4c08b382E>
    86fb:	48 8b 7b 38          	mov    0x38(%rbx),%rdi
    86ff:	48 85 ff             	test   %rdi,%rdi
    8702:	74 20                	je     8724 <_ZN4core3ptr124drop_in_place$LT$addr2line..ResDwarf$LT$gimli..read..endian_slice..EndianSlice$LT$gimli..endianity..LittleEndian$GT$$GT$$GT$17hc81e4f8e856a6197E+0x74>
    8704:	e8 a7 ff ff ff       	callq  86b0 <_ZN4core3ptr124drop_in_place$LT$addr2line..ResDwarf$LT$gimli..read..endian_slice..EndianSlice$LT$gimli..endianity..LittleEndian$GT$$GT$$GT$17hc81e4f8e856a6197E>
    8709:	48 8b 7b 38          	mov    0x38(%rbx),%rdi
    870d:	be 40 00 00 00       	mov    $0x40,%esi
    8712:	ba 08 00 00 00       	mov    $0x8,%edx
    8717:	48 83 c4 08          	add    $0x8,%rsp
    871b:	5b                   	pop    %rbx
    871c:	41 5e                	pop    %r14
    871e:	ff 25 2c 64 04 00    	jmpq   *0x4642c(%rip)        # 4eb50 <_GLOBAL_OFFSET_TABLE_+0x260>
    8724:	48 83 c4 08          	add    $0x8,%rsp
    8728:	5b                   	pop    %rbx
    8729:	41 5e                	pop    %r14
    872b:	c3                   	retq   
    872c:	49 89 c6             	mov    %rax,%r14
    872f:	48 8b 7b 38          	mov    0x38(%rbx),%rdi
    8733:	e8 c8 2d 00 00       	callq  b500 <_ZN5alloc5alloc8box_free17ha2ffb719efd377c6E>
    8738:	eb 18                	jmp    8752 <_ZN4core3ptr124drop_in_place$LT$addr2line..ResDwarf$LT$gimli..read..endian_slice..EndianSlice$LT$gimli..endianity..LittleEndian$GT$$GT$$GT$17hc81e4f8e856a6197E+0xa2>
    873a:	49 89 c6             	mov    %rax,%r14
    873d:	48 8d 7b 30          	lea    0x30(%rbx),%rdi
    8741:	e8 aa 03 00 00       	callq  8af0 <_ZN4core3ptr154drop_in_place$LT$alloc..sync..Arc$LT$gimli..read..dwarf..Dwarf$LT$gimli..read..endian_slice..EndianSlice$LT$gimli..endianity..LittleEndian$GT$$GT$$GT$$GT$17h84674e685d89ea15E>
    8746:	48 83 c3 38          	add    $0x38,%rbx
    874a:	48 89 df             	mov    %rbx,%rdi
    874d:	e8 ee 04 00 00       	callq  8c40 <_ZN4core3ptr177drop_in_place$LT$core..option..Option$LT$alloc..boxed..Box$LT$addr2line..ResDwarf$LT$gimli..read..endian_slice..EndianSlice$LT$gimli..endianity..LittleEndian$GT$$GT$$GT$$GT$$GT$17h1aeb73ad565005a9E>
    8752:	4c 89 f7             	mov    %r14,%rdi
    8755:	e8 06 d9 ff ff       	callq  6060 <_Unwind_Resume@plt>
    875a:	0f 0b                	ud2    
    875c:	ff 15 1e 64 04 00    	callq  *0x4641e(%rip)        # 4eb80 <_GLOBAL_OFFSET_TABLE_+0x290>
    8762:	0f 0b                	ud2    
    8764:	66 2e 0f 1f 84 00 00 	nopw   %cs:0x0(%rax,%rax,1)
    876b:	00 00 00 
    876e:	66 90                	xchg   %ax,%ax

0000000000008770 <_ZN4core3ptr125drop_in_place$LT$addr2line..FrameIter$LT$gimli..read..endian_slice..EndianSlice$LT$gimli..endianity..LittleEndian$GT$$GT$$GT$17h8e76b8387ac1b092E>:
    8770:	83 3f 02             	cmpl   $0x2,(%rdi)
    8773:	72 28                	jb     879d <_ZN4core3ptr125drop_in_place$LT$addr2line..FrameIter$LT$gimli..read..endian_slice..EndianSlice$LT$gimli..endianity..LittleEndian$GT$$GT$$GT$17h8e76b8387ac1b092E+0x2d>
    8775:	48 8b 47 28          	mov    0x28(%rdi),%rax
    8779:	48 85 c0             	test   %rax,%rax
    877c:	74 1f                	je     879d <_ZN4core3ptr125drop_in_place$LT$addr2line..FrameIter$LT$gimli..read..endian_slice..EndianSlice$LT$gimli..endianity..LittleEndian$GT$$GT$$GT$17h8e76b8387ac1b092E+0x2d>
    877e:	b9 08 00 00 00       	mov    $0x8,%ecx
    8783:	48 f7 e1             	mul    %rcx
    8786:	48 85 c0             	test   %rax,%rax
    8789:	74 12                	je     879d <_ZN4core3ptr125drop_in_place$LT$addr2line..FrameIter$LT$gimli..read..endian_slice..EndianSlice$LT$gimli..endianity..LittleEndian$GT$$GT$$GT$17h8e76b8387ac1b092E+0x2d>
    878b:	48 8b 7f 20          	mov    0x20(%rdi),%rdi
    878f:	ba 08 00 00 00       	mov    $0x8,%edx
    8794:	48 89 c6             	mov    %rax,%rsi
    8797:	ff 25 b3 63 04 00    	jmpq   *0x463b3(%rip)        # 4eb50 <_GLOBAL_OFFSET_TABLE_+0x260>
    879d:	c3                   	retq   
    879e:	66 90                	xchg   %ax,%ax

00000000000087a0 <_ZN4core3ptr130drop_in_place$LT$gimli..read..dwarf..Dwarf$LT$gimli..read..endian_slice..EndianSlice$LT$gimli..endianity..LittleEndian$GT$$GT$$GT$17hde22979f97a867bcE>:
    87a0:	48 8b 87 d0 00 00 00 	mov    0xd0(%rdi),%rax
    87a7:	48 85 c0             	test   %rax,%rax
    87aa:	74 13                	je     87bf <_ZN4core3ptr130drop_in_place$LT$gimli..read..dwarf..Dwarf$LT$gimli..read..endian_slice..EndianSlice$LT$gimli..endianity..LittleEndian$GT$$GT$$GT$17hde22979f97a867bcE+0x1f>
    87ac:	f0 48 83 28 01       	lock subq $0x1,(%rax)
    87b1:	75 0c                	jne    87bf <_ZN4core3ptr130drop_in_place$LT$gimli..read..dwarf..Dwarf$LT$gimli..read..endian_slice..EndianSlice$LT$gimli..endianity..LittleEndian$GT$$GT$$GT$17hde22979f97a867bcE+0x1f>
    87b3:	48 81 c7 d0 00 00 00 	add    $0xd0,%rdi
    87ba:	e9 a1 2c 00 00       	jmpq   b460 <_ZN5alloc4sync12Arc$LT$T$GT$9drop_slow17ha29dc78b4c08b382E>
    87bf:	c3                   	retq   

00000000000087c0 <_ZN4core3ptr137drop_in_place$LT$gimli..read..dwarf..Unit$LT$gimli..read..endian_slice..EndianSlice$LT$gimli..endianity..LittleEndian$GT$$C$usize$GT$$GT$17hf23dfa54092820c5E>:
    87c0:	55                   	push   %rbp
    87c1:	41 57                	push   %r15
    87c3:	41 56                	push   %r14
    87c5:	41 55                	push   %r13
    87c7:	41 54                	push   %r12
    87c9:	53                   	push   %rbx
    87ca:	50                   	push   %rax
    87cb:	49 89 fe             	mov    %rdi,%r14
    87ce:	4c 8b 67 50          	mov    0x50(%rdi),%r12
    87d2:	48 8b 47 60          	mov    0x60(%rdi),%rax
    87d6:	48 85 c0             	test   %rax,%rax
    87d9:	74 4d                	je     8828 <_ZN4core3ptr137drop_in_place$LT$gimli..read..dwarf..Unit$LT$gimli..read..endian_slice..EndianSlice$LT$gimli..endianity..LittleEndian$GT$$C$usize$GT$$GT$17hf23dfa54092820c5E+0x68>
    87db:	4c 6b f8 70          	imul   $0x70,%rax,%r15
    87df:	31 db                	xor    %ebx,%ebx
    87e1:	41 bd 10 00 00 00    	mov    $0x10,%r13d
    87e7:	48 8d 2d f2 f4 ff ff 	lea    -0xb0e(%rip),%rbp        # 7ce0 <__rust_dealloc>
    87ee:	eb 09                	jmp    87f9 <_ZN4core3ptr137drop_in_place$LT$gimli..read..dwarf..Unit$LT$gimli..read..endian_slice..EndianSlice$LT$gimli..endianity..LittleEndian$GT$$C$usize$GT$$GT$17hf23dfa54092820c5E+0x39>
    87f0:	48 83 c3 70          	add    $0x70,%rbx
    87f4:	49 39 df             	cmp    %rbx,%r15
    87f7:	74 2b                	je     8824 <_ZN4core3ptr137drop_in_place$LT$gimli..read..dwarf..Unit$LT$gimli..read..endian_slice..EndianSlice$LT$gimli..endianity..LittleEndian$GT$$C$usize$GT$$GT$17hf23dfa54092820c5E+0x64>
    87f9:	49 83 7c 1c 08 00    	cmpq   $0x0,0x8(%r12,%rbx,1)
    87ff:	74 ef                	je     87f0 <_ZN4core3ptr137drop_in_place$LT$gimli..read..dwarf..Unit$LT$gimli..read..endian_slice..EndianSlice$LT$gimli..endianity..LittleEndian$GT$$C$usize$GT$$GT$17hf23dfa54092820c5E+0x30>
    8801:	49 8b 44 1c 18       	mov    0x18(%r12,%rbx,1),%rax
    8806:	48 85 c0             	test   %rax,%rax
    8809:	74 e5                	je     87f0 <_ZN4core3ptr137drop_in_place$LT$gimli..read..dwarf..Unit$LT$gimli..read..endian_slice..EndianSlice$LT$gimli..endianity..LittleEndian$GT$$C$usize$GT$$GT$17hf23dfa54092820c5E+0x30>
    880b:	49 f7 e5             	mul    %r13
    880e:	48 85 c0             	test   %rax,%rax
    8811:	74 dd                	je     87f0 <_ZN4core3ptr137drop_in_place$LT$gimli..read..dwarf..Unit$LT$gimli..read..endian_slice..EndianSlice$LT$gimli..endianity..LittleEndian$GT$$C$usize$GT$$GT$17hf23dfa54092820c5E+0x30>
    8813:	49 8b 7c 1c 10       	mov    0x10(%r12,%rbx,1),%rdi
    8818:	ba 08 00 00 00       	mov    $0x8,%edx
    881d:	48 89 c6             	mov    %rax,%rsi
    8820:	ff d5                	callq  *%rbp
    8822:	eb cc                	jmp    87f0 <_ZN4core3ptr137drop_in_place$LT$gimli..read..dwarf..Unit$LT$gimli..read..endian_slice..EndianSlice$LT$gimli..endianity..LittleEndian$GT$$C$usize$GT$$GT$17hf23dfa54092820c5E+0x30>
    8824:	4d 8b 66 50          	mov    0x50(%r14),%r12
    8828:	49 8b 46 58          	mov    0x58(%r14),%rax
    882c:	48 85 c0             	test   %rax,%rax
    882f:	74 1e                	je     884f <_ZN4core3ptr137drop_in_place$LT$gimli..read..dwarf..Unit$LT$gimli..read..endian_slice..EndianSlice$LT$gimli..endianity..LittleEndian$GT$$C$usize$GT$$GT$17hf23dfa54092820c5E+0x8f>
    8831:	b9 70 00 00 00       	mov    $0x70,%ecx
    8836:	48 f7 e1             	mul    %rcx
    8839:	48 85 c0             	test   %rax,%rax
    883c:	74 11                	je     884f <_ZN4core3ptr137drop_in_place$LT$gimli..read..dwarf..Unit$LT$gimli..read..endian_slice..EndianSlice$LT$gimli..endianity..LittleEndian$GT$$C$usize$GT$$GT$17hf23dfa54092820c5E+0x8f>
    883e:	ba 08 00 00 00       	mov    $0x8,%edx
    8843:	4c 89 e7             	mov    %r12,%rdi
    8846:	48 89 c6             	mov    %rax,%rsi
    8849:	ff 15 01 63 04 00    	callq  *0x46301(%rip)        # 4eb50 <_GLOBAL_OFFSET_TABLE_+0x260>
    884f:	49 8d 7e 68          	lea    0x68(%r14),%rdi
    8853:	e8 78 fc ff ff       	callq  84d0 <_ZN4core3ptr108drop_in_place$LT$alloc..collections..btree..map..BTreeMap$LT$u64$C$gimli..read..abbrev..Abbreviation$GT$$GT$17hc8628c28d3789790E>
    8858:	41 83 be 70 01 00 00 	cmpl   $0x2f,0x170(%r14)
    885f:	2f 
    8860:	75 0f                	jne    8871 <_ZN4core3ptr137drop_in_place$LT$gimli..read..dwarf..Unit$LT$gimli..read..endian_slice..EndianSlice$LT$gimli..endianity..LittleEndian$GT$$C$usize$GT$$GT$17hf23dfa54092820c5E+0xb1>
    8862:	48 83 c4 08          	add    $0x8,%rsp
    8866:	5b                   	pop    %rbx
    8867:	41 5c                	pop    %r12
    8869:	41 5d                	pop    %r13
    886b:	41 5e                	pop    %r14
    886d:	41 5f                	pop    %r15
    886f:	5d                   	pop    %rbp
    8870:	c3                   	retq   
    8871:	49 81 c6 c8 00 00 00 	add    $0xc8,%r14
    8878:	4c 89 f7             	mov    %r14,%rdi
    887b:	48 83 c4 08          	add    $0x8,%rsp
    887f:	5b                   	pop    %rbx
    8880:	41 5c                	pop    %r12
    8882:	41 5d                	pop    %r13
    8884:	41 5e                	pop    %r14
    8886:	41 5f                	pop    %r15
    8888:	5d                   	pop    %rbp
    8889:	e9 b2 01 00 00       	jmpq   8a40 <_ZN4core3ptr153drop_in_place$LT$gimli..read..line..IncompleteLineProgram$LT$gimli..read..endian_slice..EndianSlice$LT$gimli..endianity..LittleEndian$GT$$C$usize$GT$$GT$17haed1f89e3229710aE>
    888e:	48 89 c3             	mov    %rax,%rbx
    8891:	49 81 c6 c8 00 00 00 	add    $0xc8,%r14
    8898:	4c 89 f7             	mov    %r14,%rdi
    889b:	e8 f0 03 00 00       	callq  8c90 <_ZN4core3ptr181drop_in_place$LT$core..option..Option$LT$gimli..read..line..IncompleteLineProgram$LT$gimli..read..endian_slice..EndianSlice$LT$gimli..endianity..LittleEndian$GT$$C$usize$GT$$GT$$GT$17h5abb843e90a7d9f2E>
    88a0:	48 89 df             	mov    %rbx,%rdi
    88a3:	e8 b8 d7 ff ff       	callq  6060 <_Unwind_Resume@plt>
    88a8:	0f 0b                	ud2    
    88aa:	66 0f 1f 44 00 00    	nopw   0x0(%rax,%rax,1)

00000000000088b0 <_ZN4core3ptr146drop_in_place$LT$alloc..vec..Vec$LT$addr2line..ResUnit$LT$gimli..read..endian_slice..EndianSlice$LT$gimli..endianity..LittleEndian$GT$$GT$$GT$$GT$17h1ac602eb691e704bE>:
    88b0:	41 57                	push   %r15
    88b2:	41 56                	push   %r14
    88b4:	41 55                	push   %r13
    88b6:	41 54                	push   %r12
    88b8:	53                   	push   %rbx
    88b9:	49 89 fe             	mov    %rdi,%r14
    88bc:	4c 8b 27             	mov    (%rdi),%r12
    88bf:	48 8b 47 10          	mov    0x10(%rdi),%rax
    88c3:	48 85 c0             	test   %rax,%rax
    88c6:	0f 84 84 00 00 00    	je     8950 <_ZN4core3ptr146drop_in_place$LT$alloc..vec..Vec$LT$addr2line..ResUnit$LT$gimli..read..endian_slice..EndianSlice$LT$gimli..endianity..LittleEndian$GT$$GT$$GT$$GT$17h1ac602eb691e704bE+0xa0>
    88cc:	4c 69 e8 30 02 00 00 	imul   $0x230,%rax,%r13
    88d3:	31 db                	xor    %ebx,%ebx
    88d5:	eb 15                	jmp    88ec <_ZN4core3ptr146drop_in_place$LT$alloc..vec..Vec$LT$addr2line..ResUnit$LT$gimli..read..endian_slice..EndianSlice$LT$gimli..endianity..LittleEndian$GT$$GT$$GT$$GT$17h1ac602eb691e704bE+0x3c>
    88d7:	66 0f 1f 84 00 00 00 	nopw   0x0(%rax,%rax,1)
    88de:	00 00 
    88e0:	48 81 c3 30 02 00 00 	add    $0x230,%rbx
    88e7:	49 39 dd             	cmp    %rbx,%r13
    88ea:	74 61                	je     894d <_ZN4core3ptr146drop_in_place$LT$alloc..vec..Vec$LT$addr2line..ResUnit$LT$gimli..read..endian_slice..EndianSlice$LT$gimli..endianity..LittleEndian$GT$$GT$$GT$$GT$17h1ac602eb691e704bE+0x9d>
    88ec:	49 8d 3c 1c          	lea    (%r12,%rbx,1),%rdi
    88f0:	48 83 c7 08          	add    $0x8,%rdi
    88f4:	e8 c7 fe ff ff       	callq  87c0 <_ZN4core3ptr137drop_in_place$LT$gimli..read..dwarf..Unit$LT$gimli..read..endian_slice..EndianSlice$LT$gimli..endianity..LittleEndian$GT$$C$usize$GT$$GT$17hf23dfa54092820c5E>
    88f9:	41 83 bc 1c d8 01 00 	cmpl   $0x2,0x1d8(%r12,%rbx,1)
    8900:	00 02 
    8902:	75 1c                	jne    8920 <_ZN4core3ptr146drop_in_place$LT$alloc..vec..Vec$LT$addr2line..ResUnit$LT$gimli..read..endian_slice..EndianSlice$LT$gimli..endianity..LittleEndian$GT$$GT$$GT$$GT$17h1ac602eb691e704bE+0x70>
    8904:	41 83 bc 1c 00 02 00 	cmpl   $0x2,0x200(%r12,%rbx,1)
    890b:	00 02 
    890d:	74 d1                	je     88e0 <_ZN4core3ptr146drop_in_place$LT$alloc..vec..Vec$LT$addr2line..ResUnit$LT$gimli..read..endian_slice..EndianSlice$LT$gimli..endianity..LittleEndian$GT$$GT$$GT$$GT$17h1ac602eb691e704bE+0x30>
    890f:	eb 2a                	jmp    893b <_ZN4core3ptr146drop_in_place$LT$alloc..vec..Vec$LT$addr2line..ResUnit$LT$gimli..read..endian_slice..EndianSlice$LT$gimli..endianity..LittleEndian$GT$$GT$$GT$$GT$17h1ac602eb691e704bE+0x8b>
    8911:	66 2e 0f 1f 84 00 00 	nopw   %cs:0x0(%rax,%rax,1)
    8918:	00 00 00 
    891b:	0f 1f 44 00 00       	nopl   0x0(%rax,%rax,1)
    8920:	49 8d 3c 1c          	lea    (%r12,%rbx,1),%rdi
    8924:	48 81 c7 d8 01 00 00 	add    $0x1d8,%rdi
    892b:	e8 60 0f 00 00       	callq  9890 <_ZN4core3ptr86drop_in_place$LT$core..result..Result$LT$addr2line..Lines$C$gimli..read..Error$GT$$GT$17h3c3f0d778a5c6dbeE>
    8930:	41 83 bc 1c 00 02 00 	cmpl   $0x2,0x200(%r12,%rbx,1)
    8937:	00 02 
    8939:	74 a5                	je     88e0 <_ZN4core3ptr146drop_in_place$LT$alloc..vec..Vec$LT$addr2line..ResUnit$LT$gimli..read..endian_slice..EndianSlice$LT$gimli..endianity..LittleEndian$GT$$GT$$GT$$GT$17h1ac602eb691e704bE+0x30>
    893b:	49 8d 3c 1c          	lea    (%r12,%rbx,1),%rdi
    893f:	48 81 c7 00 02 00 00 	add    $0x200,%rdi
    8946:	e8 55 03 00 00       	callq  8ca0 <_ZN4core3ptr184drop_in_place$LT$core..result..Result$LT$addr2line..function..Functions$LT$gimli..read..endian_slice..EndianSlice$LT$gimli..endianity..LittleEndian$GT$$GT$$C$gimli..read..Error$GT$$GT$17hd984704b696005d0E>
    894b:	eb 93                	jmp    88e0 <_ZN4core3ptr146drop_in_place$LT$alloc..vec..Vec$LT$addr2line..ResUnit$LT$gimli..read..endian_slice..EndianSlice$LT$gimli..endianity..LittleEndian$GT$$GT$$GT$$GT$17h1ac602eb691e704bE+0x30>
    894d:	4d 8b 26             	mov    (%r14),%r12
    8950:	49 8b 46 08          	mov    0x8(%r14),%rax
    8954:	48 85 c0             	test   %rax,%rax
    8957:	74 27                	je     8980 <_ZN4core3ptr146drop_in_place$LT$alloc..vec..Vec$LT$addr2line..ResUnit$LT$gimli..read..endian_slice..EndianSlice$LT$gimli..endianity..LittleEndian$GT$$GT$$GT$$GT$17h1ac602eb691e704bE+0xd0>
    8959:	b9 30 02 00 00       	mov    $0x230,%ecx
    895e:	48 f7 e1             	mul    %rcx
    8961:	48 85 c0             	test   %rax,%rax
    8964:	74 1a                	je     8980 <_ZN4core3ptr146drop_in_place$LT$alloc..vec..Vec$LT$addr2line..ResUnit$LT$gimli..read..endian_slice..EndianSlice$LT$gimli..endianity..LittleEndian$GT$$GT$$GT$$GT$17h1ac602eb691e704bE+0xd0>
    8966:	ba 08 00 00 00       	mov    $0x8,%edx
    896b:	4c 89 e7             	mov    %r12,%rdi
    896e:	48 89 c6             	mov    %rax,%rsi
    8971:	5b                   	pop    %rbx
    8972:	41 5c                	pop    %r12
    8974:	41 5d                	pop    %r13
    8976:	41 5e                	pop    %r14
    8978:	41 5f                	pop    %r15
    897a:	ff 25 d0 61 04 00    	jmpq   *0x461d0(%rip)        # 4eb50 <_GLOBAL_OFFSET_TABLE_+0x260>
    8980:	5b                   	pop    %rbx
    8981:	41 5c                	pop    %r12
    8983:	41 5d                	pop    %r13
    8985:	41 5e                	pop    %r14
    8987:	41 5f                	pop    %r15
    8989:	c3                   	retq   
    898a:	49 89 c7             	mov    %rax,%r15
    898d:	49 8d 3c 1c          	lea    (%r12,%rbx,1),%rdi
    8991:	48 81 c7 d8 01 00 00 	add    $0x1d8,%rdi
    8998:	e8 83 fc ff ff       	callq  8620 <_ZN4core3ptr119drop_in_place$LT$addr2line..lazy..LazyCell$LT$core..result..Result$LT$addr2line..Lines$C$gimli..read..Error$GT$$GT$$GT$17he2018cc1262a6f0aE>
    899d:	49 8d 3c 1c          	lea    (%r12,%rbx,1),%rdi
    89a1:	48 81 c7 00 02 00 00 	add    $0x200,%rdi
    89a8:	e8 d3 03 00 00       	callq  8d80 <_ZN4core3ptr217drop_in_place$LT$addr2line..lazy..LazyCell$LT$core..result..Result$LT$addr2line..function..Functions$LT$gimli..read..endian_slice..EndianSlice$LT$gimli..endianity..LittleEndian$GT$$GT$$C$gimli..read..Error$GT$$GT$$GT$17hf824f7e0230b6d10E>
    89ad:	49 29 dd             	sub    %rbx,%r13
    89b0:	49 81 c5 d0 fd ff ff 	add    $0xfffffffffffffdd0,%r13
    89b7:	49 8d 3c 1c          	lea    (%r12,%rbx,1),%rdi
    89bb:	48 81 c7 30 02 00 00 	add    $0x230,%rdi
    89c2:	66 2e 0f 1f 84 00 00 	nopw   %cs:0x0(%rax,%rax,1)
    89c9:	00 00 00 
    89cc:	0f 1f 40 00          	nopl   0x0(%rax)
    89d0:	4d 85 ed             	test   %r13,%r13
    89d3:	74 18                	je     89ed <_ZN4core3ptr146drop_in_place$LT$alloc..vec..Vec$LT$addr2line..ResUnit$LT$gimli..read..endian_slice..EndianSlice$LT$gimli..endianity..LittleEndian$GT$$GT$$GT$$GT$17h1ac602eb691e704bE+0x13d>
    89d5:	48 8d 9f 30 02 00 00 	lea    0x230(%rdi),%rbx
    89dc:	49 81 c5 d0 fd ff ff 	add    $0xfffffffffffffdd0,%r13
    89e3:	e8 48 fc ff ff       	callq  8630 <_ZN4core3ptr123drop_in_place$LT$addr2line..ResUnit$LT$gimli..read..endian_slice..EndianSlice$LT$gimli..endianity..LittleEndian$GT$$GT$$GT$17hc8a86f70807b29c2E>
    89e8:	48 89 df             	mov    %rbx,%rdi
    89eb:	eb e3                	jmp    89d0 <_ZN4core3ptr146drop_in_place$LT$alloc..vec..Vec$LT$addr2line..ResUnit$LT$gimli..read..endian_slice..EndianSlice$LT$gimli..endianity..LittleEndian$GT$$GT$$GT$$GT$17h1ac602eb691e704bE+0x120>
    89ed:	49 8b 3e             	mov    (%r14),%rdi
    89f0:	49 8b 76 08          	mov    0x8(%r14),%rsi
    89f4:	e8 17 00 00 00       	callq  8a10 <_ZN4core3ptr153drop_in_place$LT$alloc..raw_vec..RawVec$LT$addr2line..ResUnit$LT$gimli..read..endian_slice..EndianSlice$LT$gimli..endianity..LittleEndian$GT$$GT$$GT$$GT$17h3111fd885fb498b7E>
    89f9:	4c 89 ff             	mov    %r15,%rdi
    89fc:	e8 5f d6 ff ff       	callq  6060 <_Unwind_Resume@plt>
    8a01:	0f 0b                	ud2    
    8a03:	ff 15 77 61 04 00    	callq  *0x46177(%rip)        # 4eb80 <_GLOBAL_OFFSET_TABLE_+0x290>
    8a09:	0f 0b                	ud2    
    8a0b:	0f 1f 44 00 00       	nopl   0x0(%rax,%rax,1)

0000000000008a10 <_ZN4core3ptr153drop_in_place$LT$alloc..raw_vec..RawVec$LT$addr2line..ResUnit$LT$gimli..read..endian_slice..EndianSlice$LT$gimli..endianity..LittleEndian$GT$$GT$$GT$$GT$17h3111fd885fb498b7E>:
    8a10:	48 85 f6             	test   %rsi,%rsi
    8a13:	74 1e                	je     8a33 <_ZN4core3ptr153drop_in_place$LT$alloc..raw_vec..RawVec$LT$addr2line..ResUnit$LT$gimli..read..endian_slice..EndianSlice$LT$gimli..endianity..LittleEndian$GT$$GT$$GT$$GT$17h3111fd885fb498b7E+0x23>
    8a15:	b9 30 02 00 00       	mov    $0x230,%ecx
    8a1a:	48 89 f0             	mov    %rsi,%rax
    8a1d:	48 f7 e1             	mul    %rcx
    8a20:	48 85 c0             	test   %rax,%rax
    8a23:	74 0e                	je     8a33 <_ZN4core3ptr153drop_in_place$LT$alloc..raw_vec..RawVec$LT$addr2line..ResUnit$LT$gimli..read..endian_slice..EndianSlice$LT$gimli..endianity..LittleEndian$GT$$GT$$GT$$GT$17h3111fd885fb498b7E+0x23>
    8a25:	ba 08 00 00 00       	mov    $0x8,%edx
    8a2a:	48 89 c6             	mov    %rax,%rsi
    8a2d:	ff 25 1d 61 04 00    	jmpq   *0x4611d(%rip)        # 4eb50 <_GLOBAL_OFFSET_TABLE_+0x260>
    8a33:	c3                   	retq   
    8a34:	66 2e 0f 1f 84 00 00 	nopw   %cs:0x0(%rax,%rax,1)
    8a3b:	00 00 00 
    8a3e:	66 90                	xchg   %ax,%ax

0000000000008a40 <_ZN4core3ptr153drop_in_place$LT$gimli..read..line..IncompleteLineProgram$LT$gimli..read..endian_slice..EndianSlice$LT$gimli..endianity..LittleEndian$GT$$C$usize$GT$$GT$17haed1f89e3229710aE>:
    8a40:	53                   	push   %rbx
    8a41:	48 89 fb             	mov    %rdi,%rbx
    8a44:	48 8b 47 30          	mov    0x30(%rdi),%rax
    8a48:	48 85 c0             	test   %rax,%rax
    8a4b:	74 1f                	je     8a6c <_ZN4core3ptr153drop_in_place$LT$gimli..read..line..IncompleteLineProgram$LT$gimli..read..endian_slice..EndianSlice$LT$gimli..endianity..LittleEndian$GT$$C$usize$GT$$GT$17haed1f89e3229710aE+0x2c>
    8a4d:	b9 04 00 00 00       	mov    $0x4,%ecx
    8a52:	48 f7 e1             	mul    %rcx
    8a55:	48 85 c0             	test   %rax,%rax
    8a58:	74 12                	je     8a6c <_ZN4core3ptr153drop_in_place$LT$gimli..read..line..IncompleteLineProgram$LT$gimli..read..endian_slice..EndianSlice$LT$gimli..endianity..LittleEndian$GT$$C$usize$GT$$GT$17haed1f89e3229710aE+0x2c>
    8a5a:	48 8b 7b 28          	mov    0x28(%rbx),%rdi
    8a5e:	ba 02 00 00 00       	mov    $0x2,%edx
    8a63:	48 89 c6             	mov    %rax,%rsi
    8a66:	ff 15 e4 60 04 00    	callq  *0x460e4(%rip)        # 4eb50 <_GLOBAL_OFFSET_TABLE_+0x260>
    8a6c:	48 8b 43 48          	mov    0x48(%rbx),%rax
    8a70:	48 85 c0             	test   %rax,%rax
    8a73:	74 1f                	je     8a94 <_ZN4core3ptr153drop_in_place$LT$gimli..read..line..IncompleteLineProgram$LT$gimli..read..endian_slice..EndianSlice$LT$gimli..endianity..LittleEndian$GT$$C$usize$GT$$GT$17haed1f89e3229710aE+0x54>
    8a75:	b9 18 00 00 00       	mov    $0x18,%ecx
    8a7a:	48 f7 e1             	mul    %rcx
    8a7d:	48 85 c0             	test   %rax,%rax
    8a80:	74 12                	je     8a94 <_ZN4core3ptr153drop_in_place$LT$gimli..read..line..IncompleteLineProgram$LT$gimli..read..endian_slice..EndianSlice$LT$gimli..endianity..LittleEndian$GT$$C$usize$GT$$GT$17haed1f89e3229710aE+0x54>
    8a82:	48 8b 7b 40          	mov    0x40(%rbx),%rdi
    8a86:	ba 08 00 00 00       	mov    $0x8,%edx
    8a8b:	48 89 c6             	mov    %rax,%rsi
    8a8e:	ff 15 bc 60 04 00    	callq  *0x460bc(%rip)        # 4eb50 <_GLOBAL_OFFSET_TABLE_+0x260>
    8a94:	48 8b 43 60          	mov    0x60(%rbx),%rax
    8a98:	48 85 c0             	test   %rax,%rax
    8a9b:	74 1f                	je     8abc <_ZN4core3ptr153drop_in_place$LT$gimli..read..line..IncompleteLineProgram$LT$gimli..read..endian_slice..EndianSlice$LT$gimli..endianity..LittleEndian$GT$$C$usize$GT$$GT$17haed1f89e3229710aE+0x7c>
    8a9d:	b9 04 00 00 00       	mov    $0x4,%ecx
    8aa2:	48 f7 e1             	mul    %rcx
    8aa5:	48 85 c0             	test   %rax,%rax
    8aa8:	74 12                	je     8abc <_ZN4core3ptr153drop_in_place$LT$gimli..read..line..IncompleteLineProgram$LT$gimli..read..endian_slice..EndianSlice$LT$gimli..endianity..LittleEndian$GT$$C$usize$GT$$GT$17haed1f89e3229710aE+0x7c>
    8aaa:	48 8b 7b 58          	mov    0x58(%rbx),%rdi
    8aae:	ba 02 00 00 00       	mov    $0x2,%edx
    8ab3:	48 89 c6             	mov    %rax,%rsi
    8ab6:	ff 15 94 60 04 00    	callq  *0x46094(%rip)        # 4eb50 <_GLOBAL_OFFSET_TABLE_+0x260>
    8abc:	48 8b 43 78          	mov    0x78(%rbx),%rax
    8ac0:	48 85 c0             	test   %rax,%rax
    8ac3:	74 20                	je     8ae5 <_ZN4core3ptr153drop_in_place$LT$gimli..read..line..IncompleteLineProgram$LT$gimli..read..endian_slice..EndianSlice$LT$gimli..endianity..LittleEndian$GT$$C$usize$GT$$GT$17haed1f89e3229710aE+0xa5>
    8ac5:	b9 40 00 00 00       	mov    $0x40,%ecx
    8aca:	48 f7 e1             	mul    %rcx
    8acd:	48 85 c0             	test   %rax,%rax
    8ad0:	74 13                	je     8ae5 <_ZN4core3ptr153drop_in_place$LT$gimli..read..line..IncompleteLineProgram$LT$gimli..read..endian_slice..EndianSlice$LT$gimli..endianity..LittleEndian$GT$$C$usize$GT$$GT$17haed1f89e3229710aE+0xa5>
    8ad2:	48 8b 7b 70          	mov    0x70(%rbx),%rdi
    8ad6:	ba 08 00 00 00       	mov    $0x8,%edx
    8adb:	48 89 c6             	mov    %rax,%rsi
    8ade:	5b                   	pop    %rbx
    8adf:	ff 25 6b 60 04 00    	jmpq   *0x4606b(%rip)        # 4eb50 <_GLOBAL_OFFSET_TABLE_+0x260>
    8ae5:	5b                   	pop    %rbx
    8ae6:	c3                   	retq   
    8ae7:	66 0f 1f 84 00 00 00 	nopw   0x0(%rax,%rax,1)
    8aee:	00 00 

0000000000008af0 <_ZN4core3ptr154drop_in_place$LT$alloc..sync..Arc$LT$gimli..read..dwarf..Dwarf$LT$gimli..read..endian_slice..EndianSlice$LT$gimli..endianity..LittleEndian$GT$$GT$$GT$$GT$17h84674e685d89ea15E>:
    8af0:	48 8b 07             	mov    (%rdi),%rax
    8af3:	f0 48 83 28 01       	lock subq $0x1,(%rax)
    8af8:	75 05                	jne    8aff <_ZN4core3ptr154drop_in_place$LT$alloc..sync..Arc$LT$gimli..read..dwarf..Dwarf$LT$gimli..read..endian_slice..EndianSlice$LT$gimli..endianity..LittleEndian$GT$$GT$$GT$$GT$17h84674e685d89ea15E+0xf>
    8afa:	e9 61 29 00 00       	jmpq   b460 <_ZN5alloc4sync12Arc$LT$T$GT$9drop_slow17ha29dc78b4c08b382E>
    8aff:	c3                   	retq   

0000000000008b00 <_ZN4core3ptr159drop_in_place$LT$alloc..sync..ArcInner$LT$gimli..read..dwarf..Dwarf$LT$gimli..read..endian_slice..EndianSlice$LT$gimli..endianity..LittleEndian$GT$$GT$$GT$$GT$17hbfb55abb7bcbff61E>:
    8b00:	48 8b 87 e0 00 00 00 	mov    0xe0(%rdi),%rax
    8b07:	48 85 c0             	test   %rax,%rax
    8b0a:	74 13                	je     8b1f <_ZN4core3ptr159drop_in_place$LT$alloc..sync..ArcInner$LT$gimli..read..dwarf..Dwarf$LT$gimli..read..endian_slice..EndianSlice$LT$gimli..endianity..LittleEndian$GT$$GT$$GT$$GT$17hbfb55abb7bcbff61E+0x1f>
    8b0c:	f0 48 83 28 01       	lock subq $0x1,(%rax)
    8b11:	75 0c                	jne    8b1f <_ZN4core3ptr159drop_in_place$LT$alloc..sync..ArcInner$LT$gimli..read..dwarf..Dwarf$LT$gimli..read..endian_slice..EndianSlice$LT$gimli..endianity..LittleEndian$GT$$GT$$GT$$GT$17hbfb55abb7bcbff61E+0x1f>
    8b13:	48 81 c7 e0 00 00 00 	add    $0xe0,%rdi
    8b1a:	e9 41 29 00 00       	jmpq   b460 <_ZN5alloc4sync12Arc$LT$T$GT$9drop_slow17ha29dc78b4c08b382E>
    8b1f:	c3                   	retq   

0000000000008b20 <_ZN4core3ptr164drop_in_place$LT$alloc..vec..Vec$LT$addr2line..function..InlinedFunction$LT$gimli..read..endian_slice..EndianSlice$LT$gimli..endianity..LittleEndian$GT$$GT$$GT$$GT$17h5370d87d68daa154E>:
    8b20:	48 8b 47 08          	mov    0x8(%rdi),%rax
    8b24:	48 85 c0             	test   %rax,%rax
    8b27:	74 1e                	je     8b47 <_ZN4core3ptr164drop_in_place$LT$alloc..vec..Vec$LT$addr2line..function..InlinedFunction$LT$gimli..read..endian_slice..EndianSlice$LT$gimli..endianity..LittleEndian$GT$$GT$$GT$$GT$17h5370d87d68daa154E+0x27>
    8b29:	b9 28 00 00 00       	mov    $0x28,%ecx
    8b2e:	48 f7 e1             	mul    %rcx
    8b31:	48 85 c0             	test   %rax,%rax
    8b34:	74 11                	je     8b47 <_ZN4core3ptr164drop_in_place$LT$alloc..vec..Vec$LT$addr2line..function..InlinedFunction$LT$gimli..read..endian_slice..EndianSlice$LT$gimli..endianity..LittleEndian$GT$$GT$$GT$$GT$17h5370d87d68daa154E+0x27>
    8b36:	48 8b 3f             	mov    (%rdi),%rdi
    8b39:	ba 08 00 00 00       	mov    $0x8,%edx
    8b3e:	48 89 c6             	mov    %rax,%rsi
    8b41:	ff 25 09 60 04 00    	jmpq   *0x46009(%rip)        # 4eb50 <_GLOBAL_OFFSET_TABLE_+0x260>
    8b47:	c3                   	retq   
    8b48:	0f 1f 84 00 00 00 00 	nopl   0x0(%rax,%rax,1)
    8b4f:	00 

0000000000008b50 <_ZN4core3ptr164drop_in_place$LT$alloc..vec..Vec$LT$gimli..read..line..FileEntry$LT$gimli..read..endian_slice..EndianSlice$LT$gimli..endianity..LittleEndian$GT$$C$usize$GT$$GT$$GT$17hc8461f9210f46b61E>:
    8b50:	48 8b 47 08          	mov    0x8(%rdi),%rax
    8b54:	48 85 c0             	test   %rax,%rax
    8b57:	74 1e                	je     8b77 <_ZN4core3ptr164drop_in_place$LT$alloc..vec..Vec$LT$gimli..read..line..FileEntry$LT$gimli..read..endian_slice..EndianSlice$LT$gimli..endianity..LittleEndian$GT$$C$usize$GT$$GT$$GT$17hc8461f9210f46b61E+0x27>
    8b59:	b9 40 00 00 00       	mov    $0x40,%ecx
    8b5e:	48 f7 e1             	mul    %rcx
    8b61:	48 85 c0             	test   %rax,%rax
    8b64:	74 11                	je     8b77 <_ZN4core3ptr164drop_in_place$LT$alloc..vec..Vec$LT$gimli..read..line..FileEntry$LT$gimli..read..endian_slice..EndianSlice$LT$gimli..endianity..LittleEndian$GT$$C$usize$GT$$GT$$GT$17hc8461f9210f46b61E+0x27>
    8b66:	48 8b 3f             	mov    (%rdi),%rdi
    8b69:	ba 08 00 00 00       	mov    $0x8,%edx
    8b6e:	48 89 c6             	mov    %rax,%rsi
    8b71:	ff 25 d9 5f 04 00    	jmpq   *0x45fd9(%rip)        # 4eb50 <_GLOBAL_OFFSET_TABLE_+0x260>
    8b77:	c3                   	retq   
    8b78:	0f 1f 84 00 00 00 00 	nopl   0x0(%rax,%rax,1)
    8b7f:	00 

0000000000008b80 <_ZN4core3ptr168drop_in_place$LT$alloc..vec..Vec$LT$$RF$addr2line..function..InlinedFunction$LT$gimli..read..endian_slice..EndianSlice$LT$gimli..endianity..LittleEndian$GT$$GT$$GT$$GT$17hc0801611b3997136E>:
    8b80:	48 8b 47 08          	mov    0x8(%rdi),%rax
    8b84:	48 85 c0             	test   %rax,%rax
    8b87:	74 1e                	je     8ba7 <_ZN4core3ptr168drop_in_place$LT$alloc..vec..Vec$LT$$RF$addr2line..function..InlinedFunction$LT$gimli..read..endian_slice..EndianSlice$LT$gimli..endianity..LittleEndian$GT$$GT$$GT$$GT$17hc0801611b3997136E+0x27>
    8b89:	b9 08 00 00 00       	mov    $0x8,%ecx
    8b8e:	48 f7 e1             	mul    %rcx
    8b91:	48 85 c0             	test   %rax,%rax
    8b94:	74 11                	je     8ba7 <_ZN4core3ptr168drop_in_place$LT$alloc..vec..Vec$LT$$RF$addr2line..function..InlinedFunction$LT$gimli..read..endian_slice..EndianSlice$LT$gimli..endianity..LittleEndian$GT$$GT$$GT$$GT$17hc0801611b3997136E+0x27>
    8b96:	48 8b 3f             	mov    (%rdi),%rdi
    8b99:	ba 08 00 00 00       	mov    $0x8,%edx
    8b9e:	48 89 c6             	mov    %rax,%rsi
    8ba1:	ff 25 a9 5f 04 00    	jmpq   *0x45fa9(%rip)        # 4eb50 <_GLOBAL_OFFSET_TABLE_+0x260>
    8ba7:	c3                   	retq   
    8ba8:	0f 1f 84 00 00 00 00 	nopl   0x0(%rax,%rax,1)
    8baf:	00 

0000000000008bb0 <_ZN4core3ptr169drop_in_place$LT$alloc..vec..Vec$LT$gimli..read..unit..AttributeValue$LT$gimli..read..endian_slice..EndianSlice$LT$gimli..endianity..LittleEndian$GT$$C$usize$GT$$GT$$GT$17h0da2e78cbbd04627E>:
    8bb0:	48 8b 47 08          	mov    0x8(%rdi),%rax
    8bb4:	48 85 c0             	test   %rax,%rax
    8bb7:	74 1e                	je     8bd7 <_ZN4core3ptr169drop_in_place$LT$alloc..vec..Vec$LT$gimli..read..unit..AttributeValue$LT$gimli..read..endian_slice..EndianSlice$LT$gimli..endianity..LittleEndian$GT$$C$usize$GT$$GT$$GT$17h0da2e78cbbd04627E+0x27>
    8bb9:	b9 18 00 00 00       	mov    $0x18,%ecx
    8bbe:	48 f7 e1             	mul    %rcx
    8bc1:	48 85 c0             	test   %rax,%rax
    8bc4:	74 11                	je     8bd7 <_ZN4core3ptr169drop_in_place$LT$alloc..vec..Vec$LT$gimli..read..unit..AttributeValue$LT$gimli..read..endian_slice..EndianSlice$LT$gimli..endianity..LittleEndian$GT$$C$usize$GT$$GT$$GT$17h0da2e78cbbd04627E+0x27>
    8bc6:	48 8b 3f             	mov    (%rdi),%rdi
    8bc9:	ba 08 00 00 00       	mov    $0x8,%edx
    8bce:	48 89 c6             	mov    %rax,%rsi
    8bd1:	ff 25 79 5f 04 00    	jmpq   *0x45f79(%rip)        # 4eb50 <_GLOBAL_OFFSET_TABLE_+0x260>
    8bd7:	c3                   	retq   
    8bd8:	0f 1f 84 00 00 00 00 	nopl   0x0(%rax,%rax,1)
    8bdf:	00 

0000000000008be0 <_ZN4core3ptr175drop_in_place$LT$std..sys_common..remutex..ReentrantMutexGuard$LT$core..cell..RefCell$LT$std..io..buffered..linewriter..LineWriter$LT$std..io..stdio..StdoutRaw$GT$$GT$$GT$$GT$17hf2cb1012ad080100E>:
    8be0:	48 8b 37             	mov    (%rdi),%rsi
    8be3:	83 46 34 ff          	addl   $0xffffffff,0x34(%rsi)
    8be7:	75 2c                	jne    8c15 <_ZN4core3ptr175drop_in_place$LT$std..sys_common..remutex..ReentrantMutexGuard$LT$core..cell..RefCell$LT$std..io..buffered..linewriter..LineWriter$LT$std..io..stdio..StdoutRaw$GT$$GT$$GT$$GT$17hf2cb1012ad080100E+0x35>
    8be9:	48 c7 06 00 00 00 00 	movq   $0x0,(%rsi)
    8bf0:	31 c0                	xor    %eax,%eax
    8bf2:	87 46 30             	xchg   %eax,0x30(%rsi)
    8bf5:	83 f8 02             	cmp    $0x2,%eax
    8bf8:	75 1b                	jne    8c15 <_ZN4core3ptr175drop_in_place$LT$std..sys_common..remutex..ReentrantMutexGuard$LT$core..cell..RefCell$LT$std..io..buffered..linewriter..LineWriter$LT$std..io..stdio..StdoutRaw$GT$$GT$$GT$$GT$17hf2cb1012ad080100E+0x35>
    8bfa:	48 83 c6 30          	add    $0x30,%rsi
    8bfe:	bf ca 00 00 00       	mov    $0xca,%edi
    8c03:	ba 81 00 00 00       	mov    $0x81,%edx
    8c08:	b9 01 00 00 00       	mov    $0x1,%ecx
    8c0d:	31 c0                	xor    %eax,%eax
    8c0f:	ff 25 6b 60 04 00    	jmpq   *0x4606b(%rip)        # 4ec80 <syscall@GLIBC_2.2.5>
    8c15:	c3                   	retq   
    8c16:	66 2e 0f 1f 84 00 00 	nopw   %cs:0x0(%rax,%rax,1)
    8c1d:	00 00 00 

0000000000008c20 <_ZN4core3ptr176drop_in_place$LT$alloc..boxed..Box$LT$$u5b$addr2line..function..InlinedFunction$LT$gimli..read..endian_slice..EndianSlice$LT$gimli..endianity..LittleEndian$GT$$GT$$u5d$$GT$$GT$17ha1dac1f79515326eE>:
    8c20:	48 8b 47 08          	mov    0x8(%rdi),%rax
    8c24:	48 85 c0             	test   %rax,%rax
    8c27:	74 16                	je     8c3f <_ZN4core3ptr176drop_in_place$LT$alloc..boxed..Box$LT$$u5b$addr2line..function..InlinedFunction$LT$gimli..read..endian_slice..EndianSlice$LT$gimli..endianity..LittleEndian$GT$$GT$$u5d$$GT$$GT$17ha1dac1f79515326eE+0x1f>
    8c29:	48 8b 3f             	mov    (%rdi),%rdi
    8c2c:	48 c1 e0 03          	shl    $0x3,%rax
    8c30:	48 8d 34 80          	lea    (%rax,%rax,4),%rsi
    8c34:	ba 08 00 00 00       	mov    $0x8,%edx
    8c39:	ff 25 11 5f 04 00    	jmpq   *0x45f11(%rip)        # 4eb50 <_GLOBAL_OFFSET_TABLE_+0x260>
    8c3f:	c3                   	retq   

0000000000008c40 <_ZN4core3ptr177drop_in_place$LT$core..option..Option$LT$alloc..boxed..Box$LT$addr2line..ResDwarf$LT$gimli..read..endian_slice..EndianSlice$LT$gimli..endianity..LittleEndian$GT$$GT$$GT$$GT$$GT$17h1aeb73ad565005a9E>:
    8c40:	41 56                	push   %r14
    8c42:	53                   	push   %rbx
    8c43:	50                   	push   %rax
    8c44:	48 89 fb             	mov    %rdi,%rbx
    8c47:	48 8b 3f             	mov    (%rdi),%rdi
    8c4a:	48 85 ff             	test   %rdi,%rdi
    8c4d:	74 1f                	je     8c6e <_ZN4core3ptr177drop_in_place$LT$core..option..Option$LT$alloc..boxed..Box$LT$addr2line..ResDwarf$LT$gimli..read..endian_slice..EndianSlice$LT$gimli..endianity..LittleEndian$GT$$GT$$GT$$GT$$GT$17h1aeb73ad565005a9E+0x2e>
    8c4f:	e8 5c fa ff ff       	callq  86b0 <_ZN4core3ptr124drop_in_place$LT$addr2line..ResDwarf$LT$gimli..read..endian_slice..EndianSlice$LT$gimli..endianity..LittleEndian$GT$$GT$$GT$17hc81e4f8e856a6197E>
    8c54:	48 8b 3b             	mov    (%rbx),%rdi
    8c57:	be 40 00 00 00       	mov    $0x40,%esi
    8c5c:	ba 08 00 00 00       	mov    $0x8,%edx
    8c61:	48 83 c4 08          	add    $0x8,%rsp
    8c65:	5b                   	pop    %rbx
    8c66:	41 5e                	pop    %r14
    8c68:	ff 25 e2 5e 04 00    	jmpq   *0x45ee2(%rip)        # 4eb50 <_GLOBAL_OFFSET_TABLE_+0x260>
    8c6e:	48 83 c4 08          	add    $0x8,%rsp
    8c72:	5b                   	pop    %rbx
    8c73:	41 5e                	pop    %r14
    8c75:	c3                   	retq   
    8c76:	49 89 c6             	mov    %rax,%r14
    8c79:	48 8b 3b             	mov    (%rbx),%rdi
    8c7c:	e8 7f 28 00 00       	callq  b500 <_ZN5alloc5alloc8box_free17ha2ffb719efd377c6E>
    8c81:	4c 89 f7             	mov    %r14,%rdi
    8c84:	e8 d7 d3 ff ff       	callq  6060 <_Unwind_Resume@plt>
    8c89:	0f 0b                	ud2    
    8c8b:	0f 1f 44 00 00       	nopl   0x0(%rax,%rax,1)

0000000000008c90 <_ZN4core3ptr181drop_in_place$LT$core..option..Option$LT$gimli..read..line..IncompleteLineProgram$LT$gimli..read..endian_slice..EndianSlice$LT$gimli..endianity..LittleEndian$GT$$C$usize$GT$$GT$$GT$17h5abb843e90a7d9f2E>:
    8c90:	83 bf a8 00 00 00 2f 	cmpl   $0x2f,0xa8(%rdi)
    8c97:	75 01                	jne    8c9a <_ZN4core3ptr181drop_in_place$LT$core..option..Option$LT$gimli..read..line..IncompleteLineProgram$LT$gimli..read..endian_slice..EndianSlice$LT$gimli..endianity..LittleEndian$GT$$C$usize$GT$$GT$$GT$17h5abb843e90a7d9f2E+0xa>
    8c99:	c3                   	retq   
    8c9a:	e9 a1 fd ff ff       	jmpq   8a40 <_ZN4core3ptr153drop_in_place$LT$gimli..read..line..IncompleteLineProgram$LT$gimli..read..endian_slice..EndianSlice$LT$gimli..endianity..LittleEndian$GT$$C$usize$GT$$GT$17haed1f89e3229710aE>
    8c9f:	90                   	nop

0000000000008ca0 <_ZN4core3ptr184drop_in_place$LT$core..result..Result$LT$addr2line..function..Functions$LT$gimli..read..endian_slice..EndianSlice$LT$gimli..endianity..LittleEndian$GT$$GT$$C$gimli..read..Error$GT$$GT$17hd984704b696005d0E>:
    8ca0:	41 57                	push   %r15
    8ca2:	41 56                	push   %r14
    8ca4:	41 55                	push   %r13
    8ca6:	41 54                	push   %r12
    8ca8:	53                   	push   %rbx
    8ca9:	48 83 3f 00          	cmpq   $0x0,(%rdi)
    8cad:	74 0a                	je     8cb9 <_ZN4core3ptr184drop_in_place$LT$core..result..Result$LT$addr2line..function..Functions$LT$gimli..read..endian_slice..EndianSlice$LT$gimli..endianity..LittleEndian$GT$$GT$$C$gimli..read..Error$GT$$GT$17hd984704b696005d0E+0x19>
    8caf:	5b                   	pop    %rbx
    8cb0:	41 5c                	pop    %r12
    8cb2:	41 5d                	pop    %r13
    8cb4:	41 5e                	pop    %r14
    8cb6:	41 5f                	pop    %r15
    8cb8:	c3                   	retq   
    8cb9:	49 89 fe             	mov    %rdi,%r14
    8cbc:	48 8b 47 10          	mov    0x10(%rdi),%rax
    8cc0:	48 85 c0             	test   %rax,%rax
    8cc3:	0f 84 84 00 00 00    	je     8d4d <_ZN4core3ptr184drop_in_place$LT$core..result..Result$LT$addr2line..function..Functions$LT$gimli..read..endian_slice..EndianSlice$LT$gimli..endianity..LittleEndian$GT$$GT$$C$gimli..read..Error$GT$$GT$17hd984704b696005d0E+0xad>
    8cc9:	4d 8b 66 08          	mov    0x8(%r14),%r12
    8ccd:	48 c1 e0 03          	shl    $0x3,%rax
    8cd1:	4c 8d 3c c0          	lea    (%rax,%rax,8),%r15
    8cd5:	31 db                	xor    %ebx,%ebx
    8cd7:	4c 8d 2d 02 f0 ff ff 	lea    -0xffe(%rip),%r13        # 7ce0 <__rust_dealloc>
    8cde:	eb 09                	jmp    8ce9 <_ZN4core3ptr184drop_in_place$LT$core..result..Result$LT$addr2line..function..Functions$LT$gimli..read..endian_slice..EndianSlice$LT$gimli..endianity..LittleEndian$GT$$GT$$C$gimli..read..Error$GT$$GT$17hd984704b696005d0E+0x49>
    8ce0:	48 83 c3 48          	add    $0x48,%rbx
    8ce4:	49 39 df             	cmp    %rbx,%r15
    8ce7:	74 44                	je     8d2d <_ZN4core3ptr184drop_in_place$LT$core..result..Result$LT$addr2line..function..Functions$LT$gimli..read..endian_slice..EndianSlice$LT$gimli..endianity..LittleEndian$GT$$GT$$C$gimli..read..Error$GT$$GT$17hd984704b696005d0E+0x8d>
    8ce9:	49 83 7c 1c 08 00    	cmpq   $0x0,0x8(%r12,%rbx,1)
    8cef:	75 ef                	jne    8ce0 <_ZN4core3ptr184drop_in_place$LT$core..result..Result$LT$addr2line..function..Functions$LT$gimli..read..endian_slice..EndianSlice$LT$gimli..endianity..LittleEndian$GT$$GT$$C$gimli..read..Error$GT$$GT$17hd984704b696005d0E+0x40>
    8cf1:	49 8b 44 1c 30       	mov    0x30(%r12,%rbx,1),%rax
    8cf6:	48 85 c0             	test   %rax,%rax
    8cf9:	74 15                	je     8d10 <_ZN4core3ptr184drop_in_place$LT$core..result..Result$LT$addr2line..function..Functions$LT$gimli..read..endian_slice..EndianSlice$LT$gimli..endianity..LittleEndian$GT$$GT$$C$gimli..read..Error$GT$$GT$17hd984704b696005d0E+0x70>
    8cfb:	49 8b 7c 1c 28       	mov    0x28(%r12,%rbx,1),%rdi
    8d00:	48 c1 e0 03          	shl    $0x3,%rax
    8d04:	48 8d 34 80          	lea    (%rax,%rax,4),%rsi
    8d08:	ba 08 00 00 00       	mov    $0x8,%edx
    8d0d:	41 ff d5             	callq  *%r13
    8d10:	49 8b 74 1c 40       	mov    0x40(%r12,%rbx,1),%rsi
    8d15:	48 85 f6             	test   %rsi,%rsi
    8d18:	74 c6                	je     8ce0 <_ZN4core3ptr184drop_in_place$LT$core..result..Result$LT$addr2line..function..Functions$LT$gimli..read..endian_slice..EndianSlice$LT$gimli..endianity..LittleEndian$GT$$GT$$C$gimli..read..Error$GT$$GT$17hd984704b696005d0E+0x40>
    8d1a:	49 8b 7c 1c 38       	mov    0x38(%r12,%rbx,1),%rdi
    8d1f:	48 c1 e6 05          	shl    $0x5,%rsi
    8d23:	ba 08 00 00 00       	mov    $0x8,%edx
    8d28:	41 ff d5             	callq  *%r13
    8d2b:	eb b3                	jmp    8ce0 <_ZN4core3ptr184drop_in_place$LT$core..result..Result$LT$addr2line..function..Functions$LT$gimli..read..endian_slice..EndianSlice$LT$gimli..endianity..LittleEndian$GT$$GT$$C$gimli..read..Error$GT$$GT$17hd984704b696005d0E+0x40>
    8d2d:	49 8b 46 10          	mov    0x10(%r14),%rax
    8d31:	48 85 c0             	test   %rax,%rax
    8d34:	74 17                	je     8d4d <_ZN4core3ptr184drop_in_place$LT$core..result..Result$LT$addr2line..function..Functions$LT$gimli..read..endian_slice..EndianSlice$LT$gimli..endianity..LittleEndian$GT$$GT$$C$gimli..read..Error$GT$$GT$17hd984704b696005d0E+0xad>
    8d36:	49 8b 7e 08          	mov    0x8(%r14),%rdi
    8d3a:	48 c1 e0 03          	shl    $0x3,%rax
    8d3e:	48 8d 34 c0          	lea    (%rax,%rax,8),%rsi
    8d42:	ba 08 00 00 00       	mov    $0x8,%edx
    8d47:	ff 15 03 5e 04 00    	callq  *0x45e03(%rip)        # 4eb50 <_GLOBAL_OFFSET_TABLE_+0x260>
    8d4d:	49 8b 46 20          	mov    0x20(%r14),%rax
    8d51:	48 85 c0             	test   %rax,%rax
    8d54:	0f 84 55 ff ff ff    	je     8caf <_ZN4core3ptr184drop_in_place$LT$core..result..Result$LT$addr2line..function..Functions$LT$gimli..read..endian_slice..EndianSlice$LT$gimli..endianity..LittleEndian$GT$$GT$$C$gimli..read..Error$GT$$GT$17hd984704b696005d0E+0xf>
    8d5a:	49 8b 7e 18          	mov    0x18(%r14),%rdi
    8d5e:	48 c1 e0 03          	shl    $0x3,%rax
    8d62:	48 8d 34 40          	lea    (%rax,%rax,2),%rsi
    8d66:	ba 08 00 00 00       	mov    $0x8,%edx
    8d6b:	5b                   	pop    %rbx
    8d6c:	41 5c                	pop    %r12
    8d6e:	41 5d                	pop    %r13
    8d70:	41 5e                	pop    %r14
    8d72:	41 5f                	pop    %r15
    8d74:	ff 25 d6 5d 04 00    	jmpq   *0x45dd6(%rip)        # 4eb50 <_GLOBAL_OFFSET_TABLE_+0x260>
    8d7a:	66 0f 1f 44 00 00    	nopw   0x0(%rax,%rax,1)

0000000000008d80 <_ZN4core3ptr217drop_in_place$LT$addr2line..lazy..LazyCell$LT$core..result..Result$LT$addr2line..function..Functions$LT$gimli..read..endian_slice..EndianSlice$LT$gimli..endianity..LittleEndian$GT$$GT$$C$gimli..read..Error$GT$$GT$$GT$17hf824f7e0230b6d10E>:
    8d80:	83 3f 02             	cmpl   $0x2,(%rdi)
    8d83:	75 01                	jne    8d86 <_ZN4core3ptr217drop_in_place$LT$addr2line..lazy..LazyCell$LT$core..result..Result$LT$addr2line..function..Functions$LT$gimli..read..endian_slice..EndianSlice$LT$gimli..endianity..LittleEndian$GT$$GT$$C$gimli..read..Error$GT$$GT$$GT$17hf824f7e0230b6d10E+0x6>
    8d85:	c3                   	retq   
    8d86:	e9 15 ff ff ff       	jmpq   8ca0 <_ZN4core3ptr184drop_in_place$LT$core..result..Result$LT$addr2line..function..Functions$LT$gimli..read..endian_slice..EndianSlice$LT$gimli..endianity..LittleEndian$GT$$GT$$C$gimli..read..Error$GT$$GT$17hd984704b696005d0E>
    8d8b:	0f 1f 44 00 00       	nopl   0x0(%rax,%rax,1)

0000000000008d90 <_ZN4core3ptr226drop_in_place$LT$std..error..$LT$impl$u20$core..convert..From$LT$alloc..string..String$GT$$u20$for$u20$alloc..boxed..Box$LT$dyn$u20$std..error..Error$u2b$core..marker..Sync$u2b$core..marker..Send$GT$$GT$..from..StringError$GT$17h520cae6441d409b1E>:
    8d90:	48 8b 77 08          	mov    0x8(%rdi),%rsi
    8d94:	48 85 f6             	test   %rsi,%rsi
    8d97:	74 0e                	je     8da7 <_ZN4core3ptr226drop_in_place$LT$std..error..$LT$impl$u20$core..convert..From$LT$alloc..string..String$GT$$u20$for$u20$alloc..boxed..Box$LT$dyn$u20$std..error..Error$u2b$core..marker..Sync$u2b$core..marker..Send$GT$$GT$..from..StringError$GT$17h520cae6441d409b1E+0x17>
    8d99:	48 8b 3f             	mov    (%rdi),%rdi
    8d9c:	ba 01 00 00 00       	mov    $0x1,%edx
    8da1:	ff 25 a9 5d 04 00    	jmpq   *0x45da9(%rip)        # 4eb50 <_GLOBAL_OFFSET_TABLE_+0x260>
    8da7:	c3                   	retq   
    8da8:	0f 1f 84 00 00 00 00 	nopl   0x0(%rax,%rax,1)
    8daf:	00 

0000000000008db0 <_ZN4core3ptr256drop_in_place$LT$$LP$gimli..read..unit..UnitOffset$C$addr2line..lazy..LazyCell$LT$core..result..Result$LT$addr2line..function..Function$LT$gimli..read..endian_slice..EndianSlice$LT$gimli..endianity..LittleEndian$GT$$GT$$C$gimli..read..Error$GT$$GT$$RP$$GT$17hb1e75363f4b75fe3E>:
    8db0:	53                   	push   %rbx
    8db1:	48 83 7f 08 00       	cmpq   $0x0,0x8(%rdi)
    8db6:	74 02                	je     8dba <_ZN4core3ptr256drop_in_place$LT$$LP$gimli..read..unit..UnitOffset$C$addr2line..lazy..LazyCell$LT$core..result..Result$LT$addr2line..function..Function$LT$gimli..read..endian_slice..EndianSlice$LT$gimli..endianity..LittleEndian$GT$$GT$$C$gimli..read..Error$GT$$GT$$RP$$GT$17hb1e75363f4b75fe3E+0xa>
    8db8:	5b                   	pop    %rbx
    8db9:	c3                   	retq   
    8dba:	48 89 fb             	mov    %rdi,%rbx
    8dbd:	48 8b 47 30          	mov    0x30(%rdi),%rax
    8dc1:	48 85 c0             	test   %rax,%rax
    8dc4:	74 17                	je     8ddd <_ZN4core3ptr256drop_in_place$LT$$LP$gimli..read..unit..UnitOffset$C$addr2line..lazy..LazyCell$LT$core..result..Result$LT$addr2line..function..Function$LT$gimli..read..endian_slice..EndianSlice$LT$gimli..endianity..LittleEndian$GT$$GT$$C$gimli..read..Error$GT$$GT$$RP$$GT$17hb1e75363f4b75fe3E+0x2d>
    8dc6:	48 8b 7b 28          	mov    0x28(%rbx),%rdi
    8dca:	48 c1 e0 03          	shl    $0x3,%rax
    8dce:	48 8d 34 80          	lea    (%rax,%rax,4),%rsi
    8dd2:	ba 08 00 00 00       	mov    $0x8,%edx
    8dd7:	ff 15 73 5d 04 00    	callq  *0x45d73(%rip)        # 4eb50 <_GLOBAL_OFFSET_TABLE_+0x260>
    8ddd:	48 8b 73 40          	mov    0x40(%rbx),%rsi
    8de1:	48 85 f6             	test   %rsi,%rsi
    8de4:	74 d2                	je     8db8 <_ZN4core3ptr256drop_in_place$LT$$LP$gimli..read..unit..UnitOffset$C$addr2line..lazy..LazyCell$LT$core..result..Result$LT$addr2line..function..Function$LT$gimli..read..endian_slice..EndianSlice$LT$gimli..endianity..LittleEndian$GT$$GT$$C$gimli..read..Error$GT$$GT$$RP$$GT$17hb1e75363f4b75fe3E+0x8>
    8de6:	48 8b 7b 38          	mov    0x38(%rbx),%rdi
    8dea:	48 c1 e6 05          	shl    $0x5,%rsi
    8dee:	ba 08 00 00 00       	mov    $0x8,%edx
    8df3:	5b                   	pop    %rbx
    8df4:	ff 25 56 5d 04 00    	jmpq   *0x45d56(%rip)        # 4eb50 <_GLOBAL_OFFSET_TABLE_+0x260>
    8dfa:	66 0f 1f 44 00 00    	nopw   0x0(%rax,%rax,1)

0000000000008e00 <_ZN4core3ptr275drop_in_place$LT$gimli..read..line..LineRows$LT$gimli..read..endian_slice..EndianSlice$LT$gimli..endianity..LittleEndian$GT$$C$gimli..read..line..IncompleteLineProgram$LT$gimli..read..endian_slice..EndianSlice$LT$gimli..endianity..LittleEndian$GT$$C$usize$GT$$C$usize$GT$$GT$17hd16920b92f508fe2E>:
    8e00:	e9 3b fc ff ff       	jmpq   8a40 <_ZN4core3ptr153drop_in_place$LT$gimli..read..line..IncompleteLineProgram$LT$gimli..read..endian_slice..EndianSlice$LT$gimli..endianity..LittleEndian$GT$$C$usize$GT$$GT$17haed1f89e3229710aE>
    8e05:	66 2e 0f 1f 84 00 00 	nopw   %cs:0x0(%rax,%rax,1)
    8e0c:	00 00 00 
    8e0f:	90                   	nop

0000000000008e10 <_ZN4core3ptr279drop_in_place$LT$alloc..vec..Vec$LT$$LP$gimli..read..unit..UnitOffset$C$addr2line..lazy..LazyCell$LT$core..result..Result$LT$addr2line..function..Function$LT$gimli..read..endian_slice..EndianSlice$LT$gimli..endianity..LittleEndian$GT$$GT$$C$gimli..read..Error$GT$$GT$$RP$$GT$$GT$17hc57644697c55b08dE>:
    8e10:	41 57                	push   %r15
    8e12:	41 56                	push   %r14
    8e14:	41 55                	push   %r13
    8e16:	41 54                	push   %r12
    8e18:	53                   	push   %rbx
    8e19:	49 89 fe             	mov    %rdi,%r14
    8e1c:	4c 8b 27             	mov    (%rdi),%r12
    8e1f:	48 8b 47 10          	mov    0x10(%rdi),%rax
    8e23:	48 85 c0             	test   %rax,%rax
    8e26:	74 68                	je     8e90 <_ZN4core3ptr279drop_in_place$LT$alloc..vec..Vec$LT$$LP$gimli..read..unit..UnitOffset$C$addr2line..lazy..LazyCell$LT$core..result..Result$LT$addr2line..function..Function$LT$gimli..read..endian_slice..EndianSlice$LT$gimli..endianity..LittleEndian$GT$$GT$$C$gimli..read..Error$GT$$GT$$RP$$GT$$GT$17hc57644697c55b08dE+0x80>
    8e28:	48 c1 e0 03          	shl    $0x3,%rax
    8e2c:	4c 8d 3c c0          	lea    (%rax,%rax,8),%r15
    8e30:	31 db                	xor    %ebx,%ebx
    8e32:	4c 8d 2d a7 ee ff ff 	lea    -0x1159(%rip),%r13        # 7ce0 <__rust_dealloc>
    8e39:	eb 0e                	jmp    8e49 <_ZN4core3ptr279drop_in_place$LT$alloc..vec..Vec$LT$$LP$gimli..read..unit..UnitOffset$C$addr2line..lazy..LazyCell$LT$core..result..Result$LT$addr2line..function..Function$LT$gimli..read..endian_slice..EndianSlice$LT$gimli..endianity..LittleEndian$GT$$GT$$C$gimli..read..Error$GT$$GT$$RP$$GT$$GT$17hc57644697c55b08dE+0x39>
    8e3b:	0f 1f 44 00 00       	nopl   0x0(%rax,%rax,1)
    8e40:	48 83 c3 48          	add    $0x48,%rbx
    8e44:	49 39 df             	cmp    %rbx,%r15
    8e47:	74 44                	je     8e8d <_ZN4core3ptr279drop_in_place$LT$alloc..vec..Vec$LT$$LP$gimli..read..unit..UnitOffset$C$addr2line..lazy..LazyCell$LT$core..result..Result$LT$addr2line..function..Function$LT$gimli..read..endian_slice..EndianSlice$LT$gimli..endianity..LittleEndian$GT$$GT$$C$gimli..read..Error$GT$$GT$$RP$$GT$$GT$17hc57644697c55b08dE+0x7d>
    8e49:	49 83 7c 1c 08 00    	cmpq   $0x0,0x8(%r12,%rbx,1)
    8e4f:	75 ef                	jne    8e40 <_ZN4core3ptr279drop_in_place$LT$alloc..vec..Vec$LT$$LP$gimli..read..unit..UnitOffset$C$addr2line..lazy..LazyCell$LT$core..result..Result$LT$addr2line..function..Function$LT$gimli..read..endian_slice..EndianSlice$LT$gimli..endianity..LittleEndian$GT$$GT$$C$gimli..read..Error$GT$$GT$$RP$$GT$$GT$17hc57644697c55b08dE+0x30>
    8e51:	49 8b 44 1c 30       	mov    0x30(%r12,%rbx,1),%rax
    8e56:	48 85 c0             	test   %rax,%rax
    8e59:	74 15                	je     8e70 <_ZN4core3ptr279drop_in_place$LT$alloc..vec..Vec$LT$$LP$gimli..read..unit..UnitOffset$C$addr2line..lazy..LazyCell$LT$core..result..Result$LT$addr2line..function..Function$LT$gimli..read..endian_slice..EndianSlice$LT$gimli..endianity..LittleEndian$GT$$GT$$C$gimli..read..Error$GT$$GT$$RP$$GT$$GT$17hc57644697c55b08dE+0x60>
    8e5b:	49 8b 7c 1c 28       	mov    0x28(%r12,%rbx,1),%rdi
    8e60:	48 c1 e0 03          	shl    $0x3,%rax
    8e64:	48 8d 34 80          	lea    (%rax,%rax,4),%rsi
    8e68:	ba 08 00 00 00       	mov    $0x8,%edx
    8e6d:	41 ff d5             	callq  *%r13
    8e70:	49 8b 74 1c 40       	mov    0x40(%r12,%rbx,1),%rsi
    8e75:	48 85 f6             	test   %rsi,%rsi
    8e78:	74 c6                	je     8e40 <_ZN4core3ptr279drop_in_place$LT$alloc..vec..Vec$LT$$LP$gimli..read..unit..UnitOffset$C$addr2line..lazy..LazyCell$LT$core..result..Result$LT$addr2line..function..Function$LT$gimli..read..endian_slice..EndianSlice$LT$gimli..endianity..LittleEndian$GT$$GT$$C$gimli..read..Error$GT$$GT$$RP$$GT$$GT$17hc57644697c55b08dE+0x30>
    8e7a:	49 8b 7c 1c 38       	mov    0x38(%r12,%rbx,1),%rdi
    8e7f:	48 c1 e6 05          	shl    $0x5,%rsi
    8e83:	ba 08 00 00 00       	mov    $0x8,%edx
    8e88:	41 ff d5             	callq  *%r13
    8e8b:	eb b3                	jmp    8e40 <_ZN4core3ptr279drop_in_place$LT$alloc..vec..Vec$LT$$LP$gimli..read..unit..UnitOffset$C$addr2line..lazy..LazyCell$LT$core..result..Result$LT$addr2line..function..Function$LT$gimli..read..endian_slice..EndianSlice$LT$gimli..endianity..LittleEndian$GT$$GT$$C$gimli..read..Error$GT$$GT$$RP$$GT$$GT$17hc57644697c55b08dE+0x30>
    8e8d:	4d 8b 26             	mov    (%r14),%r12
    8e90:	49 8b 46 08          	mov    0x8(%r14),%rax
    8e94:	48 85 c0             	test   %rax,%rax
    8e97:	74 27                	je     8ec0 <_ZN4core3ptr279drop_in_place$LT$alloc..vec..Vec$LT$$LP$gimli..read..unit..UnitOffset$C$addr2line..lazy..LazyCell$LT$core..result..Result$LT$addr2line..function..Function$LT$gimli..read..endian_slice..EndianSlice$LT$gimli..endianity..LittleEndian$GT$$GT$$C$gimli..read..Error$GT$$GT$$RP$$GT$$GT$17hc57644697c55b08dE+0xb0>
    8e99:	b9 48 00 00 00       	mov    $0x48,%ecx
    8e9e:	48 f7 e1             	mul    %rcx
    8ea1:	48 85 c0             	test   %rax,%rax
    8ea4:	74 1a                	je     8ec0 <_ZN4core3ptr279drop_in_place$LT$alloc..vec..Vec$LT$$LP$gimli..read..unit..UnitOffset$C$addr2line..lazy..LazyCell$LT$core..result..Result$LT$addr2line..function..Function$LT$gimli..read..endian_slice..EndianSlice$LT$gimli..endianity..LittleEndian$GT$$GT$$C$gimli..read..Error$GT$$GT$$RP$$GT$$GT$17hc57644697c55b08dE+0xb0>
    8ea6:	ba 08 00 00 00       	mov    $0x8,%edx
    8eab:	4c 89 e7             	mov    %r12,%rdi
    8eae:	48 89 c6             	mov    %rax,%rsi
    8eb1:	5b                   	pop    %rbx
    8eb2:	41 5c                	pop    %r12
    8eb4:	41 5d                	pop    %r13
    8eb6:	41 5e                	pop    %r14
    8eb8:	41 5f                	pop    %r15
    8eba:	ff 25 90 5c 04 00    	jmpq   *0x45c90(%rip)        # 4eb50 <_GLOBAL_OFFSET_TABLE_+0x260>
    8ec0:	5b                   	pop    %rbx
    8ec1:	41 5c                	pop    %r12
    8ec3:	41 5d                	pop    %r13
    8ec5:	41 5e                	pop    %r14
    8ec7:	41 5f                	pop    %r15
    8ec9:	c3                   	retq   
    8eca:	66 0f 1f 44 00 00    	nopw   0x0(%rax,%rax,1)

0000000000008ed0 <_ZN4core3ptr291drop_in_place$LT$alloc..boxed..Box$LT$$u5b$$LP$gimli..read..unit..UnitOffset$C$addr2line..lazy..LazyCell$LT$core..result..Result$LT$addr2line..function..Function$LT$gimli..read..endian_slice..EndianSlice$LT$gimli..endianity..LittleEndian$GT$$GT$$C$gimli..read..Error$GT$$GT$$RP$$u5d$$GT$$GT$17hf090ae106b4129b5E>:
    8ed0:	41 57                	push   %r15
    8ed2:	41 56                	push   %r14
    8ed4:	41 55                	push   %r13
    8ed6:	41 54                	push   %r12
    8ed8:	53                   	push   %rbx
    8ed9:	48 8b 47 08          	mov    0x8(%rdi),%rax
    8edd:	48 85 c0             	test   %rax,%rax
    8ee0:	0f 84 8f 00 00 00    	je     8f75 <_ZN4core3ptr291drop_in_place$LT$alloc..boxed..Box$LT$$u5b$$LP$gimli..read..unit..UnitOffset$C$addr2line..lazy..LazyCell$LT$core..result..Result$LT$addr2line..function..Function$LT$gimli..read..endian_slice..EndianSlice$LT$gimli..endianity..LittleEndian$GT$$GT$$C$gimli..read..Error$GT$$GT$$RP$$u5d$$GT$$GT$17hf090ae106b4129b5E+0xa5>
    8ee6:	49 89 fe             	mov    %rdi,%r14
    8ee9:	4c 8b 27             	mov    (%rdi),%r12
    8eec:	48 c1 e0 03          	shl    $0x3,%rax
    8ef0:	4c 8d 3c c0          	lea    (%rax,%rax,8),%r15
    8ef4:	31 db                	xor    %ebx,%ebx
    8ef6:	4c 8d 2d e3 ed ff ff 	lea    -0x121d(%rip),%r13        # 7ce0 <__rust_dealloc>
    8efd:	eb 0a                	jmp    8f09 <_ZN4core3ptr291drop_in_place$LT$alloc..boxed..Box$LT$$u5b$$LP$gimli..read..unit..UnitOffset$C$addr2line..lazy..LazyCell$LT$core..result..Result$LT$addr2line..function..Function$LT$gimli..read..endian_slice..EndianSlice$LT$gimli..endianity..LittleEndian$GT$$GT$$C$gimli..read..Error$GT$$GT$$RP$$u5d$$GT$$GT$17hf090ae106b4129b5E+0x39>
    8eff:	90                   	nop
    8f00:	48 83 c3 48          	add    $0x48,%rbx
    8f04:	49 39 df             	cmp    %rbx,%r15
    8f07:	74 44                	je     8f4d <_ZN4core3ptr291drop_in_place$LT$alloc..boxed..Box$LT$$u5b$$LP$gimli..read..unit..UnitOffset$C$addr2line..lazy..LazyCell$LT$core..result..Result$LT$addr2line..function..Function$LT$gimli..read..endian_slice..EndianSlice$LT$gimli..endianity..LittleEndian$GT$$GT$$C$gimli..read..Error$GT$$GT$$RP$$u5d$$GT$$GT$17hf090ae106b4129b5E+0x7d>
    8f09:	49 83 7c 1c 08 00    	cmpq   $0x0,0x8(%r12,%rbx,1)
    8f0f:	75 ef                	jne    8f00 <_ZN4core3ptr291drop_in_place$LT$alloc..boxed..Box$LT$$u5b$$LP$gimli..read..unit..UnitOffset$C$addr2line..lazy..LazyCell$LT$core..result..Result$LT$addr2line..function..Function$LT$gimli..read..endian_slice..EndianSlice$LT$gimli..endianity..LittleEndian$GT$$GT$$C$gimli..read..Error$GT$$GT$$RP$$u5d$$GT$$GT$17hf090ae106b4129b5E+0x30>
    8f11:	49 8b 44 1c 30       	mov    0x30(%r12,%rbx,1),%rax
    8f16:	48 85 c0             	test   %rax,%rax
    8f19:	74 15                	je     8f30 <_ZN4core3ptr291drop_in_place$LT$alloc..boxed..Box$LT$$u5b$$LP$gimli..read..unit..UnitOffset$C$addr2line..lazy..LazyCell$LT$core..result..Result$LT$addr2line..function..Function$LT$gimli..read..endian_slice..EndianSlice$LT$gimli..endianity..LittleEndian$GT$$GT$$C$gimli..read..Error$GT$$GT$$RP$$u5d$$GT$$GT$17hf090ae106b4129b5E+0x60>
    8f1b:	49 8b 7c 1c 28       	mov    0x28(%r12,%rbx,1),%rdi
    8f20:	48 c1 e0 03          	shl    $0x3,%rax
    8f24:	48 8d 34 80          	lea    (%rax,%rax,4),%rsi
    8f28:	ba 08 00 00 00       	mov    $0x8,%edx
    8f2d:	41 ff d5             	callq  *%r13
    8f30:	49 8b 74 1c 40       	mov    0x40(%r12,%rbx,1),%rsi
    8f35:	48 85 f6             	test   %rsi,%rsi
    8f38:	74 c6                	je     8f00 <_ZN4core3ptr291drop_in_place$LT$alloc..boxed..Box$LT$$u5b$$LP$gimli..read..unit..UnitOffset$C$addr2line..lazy..LazyCell$LT$core..result..Result$LT$addr2line..function..Function$LT$gimli..read..endian_slice..EndianSlice$LT$gimli..endianity..LittleEndian$GT$$GT$$C$gimli..read..Error$GT$$GT$$RP$$u5d$$GT$$GT$17hf090ae106b4129b5E+0x30>
    8f3a:	49 8b 7c 1c 38       	mov    0x38(%r12,%rbx,1),%rdi
    8f3f:	48 c1 e6 05          	shl    $0x5,%rsi
    8f43:	ba 08 00 00 00       	mov    $0x8,%edx
    8f48:	41 ff d5             	callq  *%r13
    8f4b:	eb b3                	jmp    8f00 <_ZN4core3ptr291drop_in_place$LT$alloc..boxed..Box$LT$$u5b$$LP$gimli..read..unit..UnitOffset$C$addr2line..lazy..LazyCell$LT$core..result..Result$LT$addr2line..function..Function$LT$gimli..read..endian_slice..EndianSlice$LT$gimli..endianity..LittleEndian$GT$$GT$$C$gimli..read..Error$GT$$GT$$RP$$u5d$$GT$$GT$17hf090ae106b4129b5E+0x30>
    8f4d:	49 8b 46 08          	mov    0x8(%r14),%rax
    8f51:	48 85 c0             	test   %rax,%rax
    8f54:	74 1f                	je     8f75 <_ZN4core3ptr291drop_in_place$LT$alloc..boxed..Box$LT$$u5b$$LP$gimli..read..unit..UnitOffset$C$addr2line..lazy..LazyCell$LT$core..result..Result$LT$addr2line..function..Function$LT$gimli..read..endian_slice..EndianSlice$LT$gimli..endianity..LittleEndian$GT$$GT$$C$gimli..read..Error$GT$$GT$$RP$$u5d$$GT$$GT$17hf090ae106b4129b5E+0xa5>
    8f56:	49 8b 3e             	mov    (%r14),%rdi
    8f59:	48 c1 e0 03          	shl    $0x3,%rax
    8f5d:	48 8d 34 c0          	lea    (%rax,%rax,8),%rsi
    8f61:	ba 08 00 00 00       	mov    $0x8,%edx
    8f66:	5b                   	pop    %rbx
    8f67:	41 5c                	pop    %r12
    8f69:	41 5d                	pop    %r13
    8f6b:	41 5e                	pop    %r14
    8f6d:	41 5f                	pop    %r15
    8f6f:	ff 25 db 5b 04 00    	jmpq   *0x45bdb(%rip)        # 4eb50 <_GLOBAL_OFFSET_TABLE_+0x260>
    8f75:	5b                   	pop    %rbx
    8f76:	41 5c                	pop    %r12
    8f78:	41 5d                	pop    %r13
    8f7a:	41 5e                	pop    %r14
    8f7c:	41 5f                	pop    %r15
    8f7e:	c3                   	retq   
    8f7f:	90                   	nop

0000000000008f80 <_ZN4core3ptr34drop_in_place$LT$std..fs..File$GT$17h04d6da9b4c59db23E>:
    8f80:	ff 25 1a 5c 04 00    	jmpq   *0x45c1a(%rip)        # 4eba0 <close@GLIBC_2.2.5>
    8f86:	66 2e 0f 1f 84 00 00 	nopw   %cs:0x0(%rax,%rax,1)
    8f8d:	00 00 00 

0000000000008f90 <_ZN4core3ptr40drop_in_place$LT$std..thread..Thread$GT$17h35faaa9a393457a1E>:
    8f90:	48 8b 07             	mov    (%rdi),%rax
    8f93:	f0 48 83 28 01       	lock subq $0x1,(%rax)
    8f98:	75 08                	jne    8fa2 <_ZN4core3ptr40drop_in_place$LT$std..thread..Thread$GT$17h35faaa9a393457a1E+0x12>
    8f9a:	48 8b 3f             	mov    (%rdi),%rdi
    8f9d:	e9 6e 24 00 00       	jmpq   b410 <_ZN5alloc4sync12Arc$LT$T$GT$9drop_slow17h28e2460b1a201c63E>
    8fa2:	c3                   	retq   
    8fa3:	66 2e 0f 1f 84 00 00 	nopw   %cs:0x0(%rax,%rax,1)
    8faa:	00 00 00 
    8fad:	0f 1f 00             	nopl   (%rax)

0000000000008fb0 <_ZN4core3ptr42drop_in_place$LT$std..io..error..Error$GT$17h7e2bbef85ca14805E>:
    8fb0:	41 57                	push   %r15
    8fb2:	41 56                	push   %r14
    8fb4:	53                   	push   %rbx
    8fb5:	48 8b 1f             	mov    (%rdi),%rbx
    8fb8:	89 d8                	mov    %ebx,%eax
    8fba:	83 e0 03             	and    $0x3,%eax
    8fbd:	48 8d 48 fe          	lea    -0x2(%rax),%rcx
    8fc1:	48 83 f9 02          	cmp    $0x2,%rcx
    8fc5:	72 05                	jb     8fcc <_ZN4core3ptr42drop_in_place$LT$std..io..error..Error$GT$17h7e2bbef85ca14805E+0x1c>
    8fc7:	48 85 c0             	test   %rax,%rax
    8fca:	75 06                	jne    8fd2 <_ZN4core3ptr42drop_in_place$LT$std..io..error..Error$GT$17h7e2bbef85ca14805E+0x22>
    8fcc:	5b                   	pop    %rbx
    8fcd:	41 5e                	pop    %r14
    8fcf:	41 5f                	pop    %r15
    8fd1:	c3                   	retq   
    8fd2:	4c 8d 7b ff          	lea    -0x1(%rbx),%r15
    8fd6:	48 8b 7b ff          	mov    -0x1(%rbx),%rdi
    8fda:	48 8b 43 07          	mov    0x7(%rbx),%rax
    8fde:	ff 10                	callq  *(%rax)
    8fe0:	48 8b 43 07          	mov    0x7(%rbx),%rax
    8fe4:	48 8b 70 08          	mov    0x8(%rax),%rsi
    8fe8:	48 85 f6             	test   %rsi,%rsi
    8feb:	74 0e                	je     8ffb <_ZN4core3ptr42drop_in_place$LT$std..io..error..Error$GT$17h7e2bbef85ca14805E+0x4b>
    8fed:	48 8b 7b ff          	mov    -0x1(%rbx),%rdi
    8ff1:	48 8b 50 10          	mov    0x10(%rax),%rdx
    8ff5:	ff 15 55 5b 04 00    	callq  *0x45b55(%rip)        # 4eb50 <_GLOBAL_OFFSET_TABLE_+0x260>
    8ffb:	be 18 00 00 00       	mov    $0x18,%esi
    9000:	ba 08 00 00 00       	mov    $0x8,%edx
    9005:	4c 89 ff             	mov    %r15,%rdi
    9008:	5b                   	pop    %rbx
    9009:	41 5e                	pop    %r14
    900b:	41 5f                	pop    %r15
    900d:	ff 25 3d 5b 04 00    	jmpq   *0x45b3d(%rip)        # 4eb50 <_GLOBAL_OFFSET_TABLE_+0x260>
    9013:	49 89 c6             	mov    %rax,%r14
    9016:	48 8b 7b ff          	mov    -0x1(%rbx),%rdi
    901a:	48 8b 73 07          	mov    0x7(%rbx),%rsi
    901e:	e8 ad 24 00 00       	callq  b4d0 <_ZN5alloc5alloc8box_free17h2486fcefbb60399dE>
    9023:	4c 89 ff             	mov    %r15,%rdi
    9026:	e8 c5 24 00 00       	callq  b4f0 <_ZN5alloc5alloc8box_free17h97d68b5000aae9d6E>
    902b:	4c 89 f7             	mov    %r14,%rdi
    902e:	e8 2d d0 ff ff       	callq  6060 <_Unwind_Resume@plt>
    9033:	0f 0b                	ud2    
    9035:	66 2e 0f 1f 84 00 00 	nopw   %cs:0x0(%rax,%rax,1)
    903c:	00 00 00 
    903f:	90                   	nop

0000000000009040 <_ZN4core3ptr44drop_in_place$LT$addr2line..LineSequence$GT$17h6a89b79d63a5422aE>:
    9040:	48 8b 47 18          	mov    0x18(%rdi),%rax
    9044:	48 85 c0             	test   %rax,%rax
    9047:	74 17                	je     9060 <_ZN4core3ptr44drop_in_place$LT$addr2line..LineSequence$GT$17h6a89b79d63a5422aE+0x20>
    9049:	48 8b 7f 10          	mov    0x10(%rdi),%rdi
    904d:	48 c1 e0 03          	shl    $0x3,%rax
    9051:	48 8d 34 40          	lea    (%rax,%rax,2),%rsi
    9055:	ba 08 00 00 00       	mov    $0x8,%edx
    905a:	ff 25 f0 5a 04 00    	jmpq   *0x45af0(%rip)        # 4eb50 <_GLOBAL_OFFSET_TABLE_+0x260>
    9060:	c3                   	retq   
    9061:	66 2e 0f 1f 84 00 00 	nopw   %cs:0x0(%rax,%rax,1)
    9068:	00 00 00 
    906b:	0f 1f 44 00 00       	nopl   0x0(%rax,%rax,1)

0000000000009070 <_ZN4core3ptr44drop_in_place$LT$std..sync..once..Waiter$GT$17h180e4680e5db9120E>:
    9070:	48 8b 07             	mov    (%rdi),%rax
    9073:	48 85 c0             	test   %rax,%rax
    9076:	74 0f                	je     9087 <_ZN4core3ptr44drop_in_place$LT$std..sync..once..Waiter$GT$17h180e4680e5db9120E+0x17>
    9078:	f0 48 83 28 01       	lock subq $0x1,(%rax)
    907d:	75 08                	jne    9087 <_ZN4core3ptr44drop_in_place$LT$std..sync..once..Waiter$GT$17h180e4680e5db9120E+0x17>
    907f:	48 8b 3f             	mov    (%rdi),%rdi
    9082:	e9 89 23 00 00       	jmpq   b410 <_ZN5alloc4sync12Arc$LT$T$GT$9drop_slow17h28e2460b1a201c63E>
    9087:	c3                   	retq   
    9088:	0f 1f 84 00 00 00 00 	nopl   0x0(%rax,%rax,1)
    908f:	00 

0000000000009090 <_ZN4core3ptr46drop_in_place$LT$alloc..vec..Vec$LT$u8$GT$$GT$17h1f717618228b4e7aE>:
    9090:	48 8b 77 08          	mov    0x8(%rdi),%rsi
    9094:	48 85 f6             	test   %rsi,%rsi
    9097:	74 0e                	je     90a7 <_ZN4core3ptr46drop_in_place$LT$alloc..vec..Vec$LT$u8$GT$$GT$17h1f717618228b4e7aE+0x17>
    9099:	48 8b 3f             	mov    (%rdi),%rdi
    909c:	ba 01 00 00 00       	mov    $0x1,%edx
    90a1:	ff 25 a9 5a 04 00    	jmpq   *0x45aa9(%rip)        # 4eb50 <_GLOBAL_OFFSET_TABLE_+0x260>
    90a7:	c3                   	retq   
    90a8:	0f 1f 84 00 00 00 00 	nopl   0x0(%rax,%rax,1)
    90af:	00 

00000000000090b0 <_ZN4core3ptr47drop_in_place$LT$alloc..ffi..c_str..CString$GT$17hb930374a0bf63384E>:
    90b0:	48 8b 07             	mov    (%rdi),%rax
    90b3:	c6 00 00             	movb   $0x0,(%rax)
    90b6:	48 8b 77 08          	mov    0x8(%rdi),%rsi
    90ba:	48 85 f6             	test   %rsi,%rsi
    90bd:	74 0e                	je     90cd <_ZN4core3ptr47drop_in_place$LT$alloc..ffi..c_str..CString$GT$17hb930374a0bf63384E+0x1d>
    90bf:	48 8b 3f             	mov    (%rdi),%rdi
    90c2:	ba 01 00 00 00       	mov    $0x1,%edx
    90c7:	ff 25 83 5a 04 00    	jmpq   *0x45a83(%rip)        # 4eb50 <_GLOBAL_OFFSET_TABLE_+0x260>
    90cd:	c3                   	retq   
    90ce:	66 90                	xchg   %ax,%ax

00000000000090d0 <_ZN4core3ptr47drop_in_place$LT$std..io..stdio..StdoutLock$GT$17h750d986310393310E>:
    90d0:	48 8b 37             	mov    (%rdi),%rsi
    90d3:	83 46 34 ff          	addl   $0xffffffff,0x34(%rsi)
    90d7:	75 2c                	jne    9105 <_ZN4core3ptr47drop_in_place$LT$std..io..stdio..StdoutLock$GT$17h750d986310393310E+0x35>
    90d9:	48 c7 06 00 00 00 00 	movq   $0x0,(%rsi)
    90e0:	31 c0                	xor    %eax,%eax
    90e2:	87 46 30             	xchg   %eax,0x30(%rsi)
    90e5:	83 f8 02             	cmp    $0x2,%eax
    90e8:	75 1b                	jne    9105 <_ZN4core3ptr47drop_in_place$LT$std..io..stdio..StdoutLock$GT$17h750d986310393310E+0x35>
    90ea:	48 83 c6 30          	add    $0x30,%rsi
    90ee:	bf ca 00 00 00       	mov    $0xca,%edi
    90f3:	ba 81 00 00 00       	mov    $0x81,%edx
    90f8:	b9 01 00 00 00       	mov    $0x1,%ecx
    90fd:	31 c0                	xor    %eax,%eax
    90ff:	ff 25 7b 5b 04 00    	jmpq   *0x45b7b(%rip)        # 4ec80 <syscall@GLIBC_2.2.5>
    9105:	c3                   	retq   
    9106:	66 2e 0f 1f 84 00 00 	nopw   %cs:0x0(%rax,%rax,1)
    910d:	00 00 00 

0000000000009110 <_ZN4core3ptr49drop_in_place$LT$std..sync..once..WaiterQueue$GT$17hd9ab005d8a7764faE>:
    9110:	ff 25 d2 5b 04 00    	jmpq   *0x45bd2(%rip)        # 4ece8 <_GLOBAL_OFFSET_TABLE_+0x3f8>
    9116:	66 2e 0f 1f 84 00 00 	nopw   %cs:0x0(%rax,%rax,1)
    911d:	00 00 00 

0000000000009120 <_ZN4core3ptr50drop_in_place$LT$alloc..borrow..Cow$LT$str$GT$$GT$17h5d58c07eb15f0871E>:
    9120:	48 83 3f 00          	cmpq   $0x0,(%rdi)
    9124:	74 18                	je     913e <_ZN4core3ptr50drop_in_place$LT$alloc..borrow..Cow$LT$str$GT$$GT$17h5d58c07eb15f0871E+0x1e>
    9126:	48 8b 77 10          	mov    0x10(%rdi),%rsi
    912a:	48 85 f6             	test   %rsi,%rsi
    912d:	74 0f                	je     913e <_ZN4core3ptr50drop_in_place$LT$alloc..borrow..Cow$LT$str$GT$$GT$17h5d58c07eb15f0871E+0x1e>
    912f:	48 8b 7f 08          	mov    0x8(%rdi),%rdi
    9133:	ba 01 00 00 00       	mov    $0x1,%edx
    9138:	ff 25 12 5a 04 00    	jmpq   *0x45a12(%rip)        # 4eb50 <_GLOBAL_OFFSET_TABLE_+0x260>
    913e:	c3                   	retq   
    913f:	90                   	nop

0000000000009140 <_ZN4core3ptr52drop_in_place$LT$gimli..read..abbrev..Attributes$GT$17h1400c4ab6d2b0991E>:
    9140:	48 83 3f 00          	cmpq   $0x0,(%rdi)
    9144:	74 28                	je     916e <_ZN4core3ptr52drop_in_place$LT$gimli..read..abbrev..Attributes$GT$17h1400c4ab6d2b0991E+0x2e>
    9146:	48 8b 47 10          	mov    0x10(%rdi),%rax
    914a:	48 85 c0             	test   %rax,%rax
    914d:	74 1f                	je     916e <_ZN4core3ptr52drop_in_place$LT$gimli..read..abbrev..Attributes$GT$17h1400c4ab6d2b0991E+0x2e>
    914f:	b9 10 00 00 00       	mov    $0x10,%ecx
    9154:	48 f7 e1             	mul    %rcx
    9157:	48 85 c0             	test   %rax,%rax
    915a:	74 12                	je     916e <_ZN4core3ptr52drop_in_place$LT$gimli..read..abbrev..Attributes$GT$17h1400c4ab6d2b0991E+0x2e>
    915c:	48 8b 7f 08          	mov    0x8(%rdi),%rdi
    9160:	ba 08 00 00 00       	mov    $0x8,%edx
    9165:	48 89 c6             	mov    %rax,%rsi
    9168:	ff 25 e2 59 04 00    	jmpq   *0x459e2(%rip)        # 4eb50 <_GLOBAL_OFFSET_TABLE_+0x260>
    916e:	c3                   	retq   
    916f:	90                   	nop

0000000000009170 <_ZN4core3ptr55drop_in_place$LT$gimli..read..abbrev..Abbreviations$GT$17h3d0ff6b9bd1155bcE>:
    9170:	55                   	push   %rbp
    9171:	41 57                	push   %r15
    9173:	41 56                	push   %r14
    9175:	41 55                	push   %r13
    9177:	41 54                	push   %r12
    9179:	53                   	push   %rbx
    917a:	50                   	push   %rax
    917b:	49 89 fe             	mov    %rdi,%r14
    917e:	4c 8b 27             	mov    (%rdi),%r12
    9181:	48 8b 47 10          	mov    0x10(%rdi),%rax
    9185:	48 85 c0             	test   %rax,%rax
    9188:	74 4d                	je     91d7 <_ZN4core3ptr55drop_in_place$LT$gimli..read..abbrev..Abbreviations$GT$17h3d0ff6b9bd1155bcE+0x67>
    918a:	4c 6b f8 70          	imul   $0x70,%rax,%r15
    918e:	31 db                	xor    %ebx,%ebx
    9190:	41 bd 10 00 00 00    	mov    $0x10,%r13d
    9196:	48 8d 2d 43 eb ff ff 	lea    -0x14bd(%rip),%rbp        # 7ce0 <__rust_dealloc>
    919d:	eb 0a                	jmp    91a9 <_ZN4core3ptr55drop_in_place$LT$gimli..read..abbrev..Abbreviations$GT$17h3d0ff6b9bd1155bcE+0x39>
    919f:	90                   	nop
    91a0:	48 83 c3 70          	add    $0x70,%rbx
    91a4:	49 39 df             	cmp    %rbx,%r15
    91a7:	74 2b                	je     91d4 <_ZN4core3ptr55drop_in_place$LT$gimli..read..abbrev..Abbreviations$GT$17h3d0ff6b9bd1155bcE+0x64>
    91a9:	49 83 7c 1c 08 00    	cmpq   $0x0,0x8(%r12,%rbx,1)
    91af:	74 ef                	je     91a0 <_ZN4core3ptr55drop_in_place$LT$gimli..read..abbrev..Abbreviations$GT$17h3d0ff6b9bd1155bcE+0x30>
    91b1:	49 8b 44 1c 18       	mov    0x18(%r12,%rbx,1),%rax
    91b6:	48 85 c0             	test   %rax,%rax
    91b9:	74 e5                	je     91a0 <_ZN4core3ptr55drop_in_place$LT$gimli..read..abbrev..Abbreviations$GT$17h3d0ff6b9bd1155bcE+0x30>
    91bb:	49 f7 e5             	mul    %r13
    91be:	48 85 c0             	test   %rax,%rax
    91c1:	74 dd                	je     91a0 <_ZN4core3ptr55drop_in_place$LT$gimli..read..abbrev..Abbreviations$GT$17h3d0ff6b9bd1155bcE+0x30>
    91c3:	49 8b 7c 1c 10       	mov    0x10(%r12,%rbx,1),%rdi
    91c8:	ba 08 00 00 00       	mov    $0x8,%edx
    91cd:	48 89 c6             	mov    %rax,%rsi
    91d0:	ff d5                	callq  *%rbp
    91d2:	eb cc                	jmp    91a0 <_ZN4core3ptr55drop_in_place$LT$gimli..read..abbrev..Abbreviations$GT$17h3d0ff6b9bd1155bcE+0x30>
    91d4:	4d 8b 26             	mov    (%r14),%r12
    91d7:	49 8b 46 08          	mov    0x8(%r14),%rax
    91db:	48 85 c0             	test   %rax,%rax
    91de:	74 1e                	je     91fe <_ZN4core3ptr55drop_in_place$LT$gimli..read..abbrev..Abbreviations$GT$17h3d0ff6b9bd1155bcE+0x8e>
    91e0:	b9 70 00 00 00       	mov    $0x70,%ecx
    91e5:	48 f7 e1             	mul    %rcx
    91e8:	48 85 c0             	test   %rax,%rax
    91eb:	74 11                	je     91fe <_ZN4core3ptr55drop_in_place$LT$gimli..read..abbrev..Abbreviations$GT$17h3d0ff6b9bd1155bcE+0x8e>
    91ed:	ba 08 00 00 00       	mov    $0x8,%edx
    91f2:	4c 89 e7             	mov    %r12,%rdi
    91f5:	48 89 c6             	mov    %rax,%rsi
    91f8:	ff 15 52 59 04 00    	callq  *0x45952(%rip)        # 4eb50 <_GLOBAL_OFFSET_TABLE_+0x260>
    91fe:	49 83 c6 18          	add    $0x18,%r14
    9202:	4c 89 f7             	mov    %r14,%rdi
    9205:	48 83 c4 08          	add    $0x8,%rsp
    9209:	5b                   	pop    %rbx
    920a:	41 5c                	pop    %r12
    920c:	41 5d                	pop    %r13
    920e:	41 5e                	pop    %r14
    9210:	41 5f                	pop    %r15
    9212:	5d                   	pop    %rbp
    9213:	e9 b8 f2 ff ff       	jmpq   84d0 <_ZN4core3ptr108drop_in_place$LT$alloc..collections..btree..map..BTreeMap$LT$u64$C$gimli..read..abbrev..Abbreviation$GT$$GT$17hc8628c28d3789790E>
    9218:	0f 1f 84 00 00 00 00 	nopl   0x0(%rax,%rax,1)
    921f:	00 

0000000000009220 <_ZN4core3ptr61drop_in_place$LT$std..sys_common..mutex..StaticMutexGuard$GT$17hc693b318148c1b0fE>:
    9220:	48 8b 37             	mov    (%rdi),%rsi
    9223:	31 c0                	xor    %eax,%eax
    9225:	87 06                	xchg   %eax,(%rsi)
    9227:	83 f8 02             	cmp    $0x2,%eax
    922a:	75 17                	jne    9243 <_ZN4core3ptr61drop_in_place$LT$std..sys_common..mutex..StaticMutexGuard$GT$17hc693b318148c1b0fE+0x23>
    922c:	bf ca 00 00 00       	mov    $0xca,%edi
    9231:	ba 81 00 00 00       	mov    $0x81,%edx
    9236:	b9 01 00 00 00       	mov    $0x1,%ecx
    923b:	31 c0                	xor    %eax,%eax
    923d:	ff 25 3d 5a 04 00    	jmpq   *0x45a3d(%rip)        # 4ec80 <syscall@GLIBC_2.2.5>
    9243:	c3                   	retq   
    9244:	66 2e 0f 1f 84 00 00 	nopw   %cs:0x0(%rax,%rax,1)
    924b:	00 00 00 
    924e:	66 90                	xchg   %ax,%ax

0000000000009250 <_ZN4core3ptr64drop_in_place$LT$alloc..vec..Vec$LT$addr2line..UnitRange$GT$$GT$17h31ffe36dc66e2434E>:
    9250:	48 8b 47 08          	mov    0x8(%rdi),%rax
    9254:	48 85 c0             	test   %rax,%rax
    9257:	74 1e                	je     9277 <_ZN4core3ptr64drop_in_place$LT$alloc..vec..Vec$LT$addr2line..UnitRange$GT$$GT$17h31ffe36dc66e2434E+0x27>
    9259:	b9 20 00 00 00       	mov    $0x20,%ecx
    925e:	48 f7 e1             	mul    %rcx
    9261:	48 85 c0             	test   %rax,%rax
    9264:	74 11                	je     9277 <_ZN4core3ptr64drop_in_place$LT$alloc..vec..Vec$LT$addr2line..UnitRange$GT$$GT$17h31ffe36dc66e2434E+0x27>
    9266:	48 8b 3f             	mov    (%rdi),%rdi
    9269:	ba 08 00 00 00       	mov    $0x8,%edx
    926e:	48 89 c6             	mov    %rax,%rsi
    9271:	ff 25 d9 58 04 00    	jmpq   *0x458d9(%rip)        # 4eb50 <_GLOBAL_OFFSET_TABLE_+0x260>
    9277:	c3                   	retq   
    9278:	0f 1f 84 00 00 00 00 	nopl   0x0(%rax,%rax,1)
    927f:	00 

0000000000009280 <_ZN4core3ptr64drop_in_place$LT$std..backtrace_rs..print..BacktraceFrameFmt$GT$17h3d2527aa16259548E>:
    9280:	48 8b 07             	mov    (%rdi),%rax
    9283:	48 83 40 08 01       	addq   $0x1,0x8(%rax)
    9288:	c3                   	retq   
    9289:	0f 1f 80 00 00 00 00 	nopl   0x0(%rax)

0000000000009290 <_ZN4core3ptr65drop_in_place$LT$alloc..vec..Vec$LT$alloc..string..String$GT$$GT$17h69fc0154f45f9933E>:
    9290:	41 57                	push   %r15
    9292:	41 56                	push   %r14
    9294:	41 54                	push   %r12
    9296:	53                   	push   %rbx
    9297:	50                   	push   %rax
    9298:	49 89 fe             	mov    %rdi,%r14
    929b:	48 8b 1f             	mov    (%rdi),%rbx
    929e:	48 8b 47 10          	mov    0x10(%rdi),%rax
    92a2:	48 85 c0             	test   %rax,%rax
    92a5:	74 3b                	je     92e2 <_ZN4core3ptr65drop_in_place$LT$alloc..vec..Vec$LT$alloc..string..String$GT$$GT$17h69fc0154f45f9933E+0x52>
    92a7:	48 8d 04 40          	lea    (%rax,%rax,2),%rax
    92ab:	4c 8d 3c c3          	lea    (%rbx,%rax,8),%r15
    92af:	4c 8d 25 2a ea ff ff 	lea    -0x15d6(%rip),%r12        # 7ce0 <__rust_dealloc>
    92b6:	eb 11                	jmp    92c9 <_ZN4core3ptr65drop_in_place$LT$alloc..vec..Vec$LT$alloc..string..String$GT$$GT$17h69fc0154f45f9933E+0x39>
    92b8:	0f 1f 84 00 00 00 00 	nopl   0x0(%rax,%rax,1)
    92bf:	00 
    92c0:	48 83 c3 18          	add    $0x18,%rbx
    92c4:	4c 39 fb             	cmp    %r15,%rbx
    92c7:	74 16                	je     92df <_ZN4core3ptr65drop_in_place$LT$alloc..vec..Vec$LT$alloc..string..String$GT$$GT$17h69fc0154f45f9933E+0x4f>
    92c9:	48 8b 73 08          	mov    0x8(%rbx),%rsi
    92cd:	48 85 f6             	test   %rsi,%rsi
